                                      1 ;--------------------------------------------------------
                                      2 ; File Created by SDCC : free open source ANSI-C Compiler
                                      3 ; Version 4.0.7 #12016 (MINGW64)
                                      4 ;--------------------------------------------------------
                                      5 	.module main
                                      6 	.optsdcc -mgbz80
                                      7 	
                                      8 ;--------------------------------------------------------
                                      9 ; Public variables in this module
                                     10 ;--------------------------------------------------------
                                     11 	.globl _main
                                     12 	.globl _animate
                                     13 	.globl _move
                                     14 	.globl _animate_sprite
                                     15 	.globl _can_player_move
                                     16 	.globl _special_tile
                                     17 	.globl _printf
                                     18 	.globl _set_sprite_data
                                     19 	.globl _set_bkg_tiles
                                     20 	.globl _set_bkg_data
                                     21 	.globl _wait_vbl_done
                                     22 	.globl _joypad
                                     23 	.globl _delay
                                     24 	.globl _game_running
                                     25 	.globl _open_door
                                     26 	.globl _has_key
                                     27 	.globl _playerlocation
                                     28 	.globl _maze
                                     29 	.globl _maze_tiles
                                     30 	.globl _Face2
                                     31 	.globl _blankmap
                                     32 ;--------------------------------------------------------
                                     33 ; special function registers
                                     34 ;--------------------------------------------------------
                                     35 ;--------------------------------------------------------
                                     36 ; ram data
                                     37 ;--------------------------------------------------------
                                     38 	.area _DATA
      000000                         39 _Face2::
      000000                         40 	.ds 64
      000040                         41 _maze_tiles::
      000040                         42 	.ds 64
      000080                         43 _maze::
      000080                         44 	.ds 360
      0001E8                         45 _playerlocation::
      0001E8                         46 	.ds 2
      0001EA                         47 _has_key::
      0001EA                         48 	.ds 1
      0001EB                         49 _open_door::
      0001EB                         50 	.ds 1
      0001EC                         51 _game_running::
      0001EC                         52 	.ds 1
                                     53 ;--------------------------------------------------------
                                     54 ; absolute external ram data
                                     55 ;--------------------------------------------------------
                                     56 	.area _DABS (ABS)
                                     57 ;--------------------------------------------------------
                                     58 ; global & static initialisations
                                     59 ;--------------------------------------------------------
                                     60 	.area _HOME
                                     61 	.area _GSINIT
                                     62 	.area _GSFINAL
                                     63 	.area _GSINIT
                                     64 ;Face2.c:26: unsigned char Face2[] =
      000000 21r00r00                65 	ld	hl, #_Face2
      000003 36 7E                   66 	ld	(hl), #0x7e
      000005 21r01r00                67 	ld	hl, #(_Face2 + 0x0001)
      000008 36 7E                   68 	ld	(hl), #0x7e
      00000A 21r02r00                69 	ld	hl, #(_Face2 + 0x0002)
      00000D 36 FF                   70 	ld	(hl), #0xff
      00000F 21r03r00                71 	ld	hl, #(_Face2 + 0x0003)
      000012 36 81                   72 	ld	(hl), #0x81
      000014 21r04r00                73 	ld	hl, #(_Face2 + 0x0004)
      000017 36 FF                   74 	ld	(hl), #0xff
      000019 21r05r00                75 	ld	hl, #(_Face2 + 0x0005)
      00001C 36 A5                   76 	ld	(hl), #0xa5
      00001E 21r06r00                77 	ld	hl, #(_Face2 + 0x0006)
      000021 36 FF                   78 	ld	(hl), #0xff
      000023 21r07r00                79 	ld	hl, #(_Face2 + 0x0007)
      000026 36 81                   80 	ld	(hl), #0x81
      000028 21r08r00                81 	ld	hl, #(_Face2 + 0x0008)
      00002B 36 FF                   82 	ld	(hl), #0xff
      00002D 21r09r00                83 	ld	hl, #(_Face2 + 0x0009)
      000030 36 99                   84 	ld	(hl), #0x99
      000032 21r0Ar00                85 	ld	hl, #(_Face2 + 0x000a)
      000035 36 FF                   86 	ld	(hl), #0xff
      000037 21r0Br00                87 	ld	hl, #(_Face2 + 0x000b)
      00003A 36 A5                   88 	ld	(hl), #0xa5
      00003C 21r0Cr00                89 	ld	hl, #(_Face2 + 0x000c)
      00003F 36 FF                   90 	ld	(hl), #0xff
      000041 21r0Dr00                91 	ld	hl, #(_Face2 + 0x000d)
      000044 36 81                   92 	ld	(hl), #0x81
      000046 21r0Er00                93 	ld	hl, #(_Face2 + 0x000e)
      000049 36 7E                   94 	ld	(hl), #0x7e
      00004B 21r0Fr00                95 	ld	hl, #(_Face2 + 0x000f)
      00004E 36 7E                   96 	ld	(hl), #0x7e
      000050 21r10r00                97 	ld	hl, #(_Face2 + 0x0010)
      000053 36 7E                   98 	ld	(hl), #0x7e
      000055 21r11r00                99 	ld	hl, #(_Face2 + 0x0011)
      000058 36 7E                  100 	ld	(hl), #0x7e
      00005A 21r12r00               101 	ld	hl, #(_Face2 + 0x0012)
      00005D 36 FF                  102 	ld	(hl), #0xff
      00005F 21r13r00               103 	ld	hl, #(_Face2 + 0x0013)
      000062 36 81                  104 	ld	(hl), #0x81
      000064 21r14r00               105 	ld	hl, #(_Face2 + 0x0014)
      000067 36 FF                  106 	ld	(hl), #0xff
      000069 21r15r00               107 	ld	hl, #(_Face2 + 0x0015)
      00006C 36 A5                  108 	ld	(hl), #0xa5
      00006E 21r16r00               109 	ld	hl, #(_Face2 + 0x0016)
      000071 36 FF                  110 	ld	(hl), #0xff
      000073 21r17r00               111 	ld	hl, #(_Face2 + 0x0017)
      000076 36 81                  112 	ld	(hl), #0x81
      000078 21r18r00               113 	ld	hl, #(_Face2 + 0x0018)
      00007B 36 FF                  114 	ld	(hl), #0xff
      00007D 21r19r00               115 	ld	hl, #(_Face2 + 0x0019)
      000080 36 81                  116 	ld	(hl), #0x81
      000082 21r1Ar00               117 	ld	hl, #(_Face2 + 0x001a)
      000085 36 FF                  118 	ld	(hl), #0xff
      000087 21r1Br00               119 	ld	hl, #(_Face2 + 0x001b)
      00008A 36 BD                  120 	ld	(hl), #0xbd
      00008C 21r1Cr00               121 	ld	hl, #(_Face2 + 0x001c)
      00008F 36 FF                  122 	ld	(hl), #0xff
      000091 21r1Dr00               123 	ld	hl, #(_Face2 + 0x001d)
      000094 36 81                  124 	ld	(hl), #0x81
      000096 21r1Er00               125 	ld	hl, #(_Face2 + 0x001e)
      000099 36 7E                  126 	ld	(hl), #0x7e
      00009B 21r1Fr00               127 	ld	hl, #(_Face2 + 0x001f)
      00009E 36 7E                  128 	ld	(hl), #0x7e
      0000A0 21r20r00               129 	ld	hl, #(_Face2 + 0x0020)
      0000A3 36 7E                  130 	ld	(hl), #0x7e
      0000A5 21r21r00               131 	ld	hl, #(_Face2 + 0x0021)
      0000A8 36 7E                  132 	ld	(hl), #0x7e
      0000AA 21r22r00               133 	ld	hl, #(_Face2 + 0x0022)
      0000AD 36 FF                  134 	ld	(hl), #0xff
      0000AF 21r23r00               135 	ld	hl, #(_Face2 + 0x0023)
      0000B2 36 81                  136 	ld	(hl), #0x81
      0000B4 21r24r00               137 	ld	hl, #(_Face2 + 0x0024)
      0000B7 36 FF                  138 	ld	(hl), #0xff
      0000B9 21r25r00               139 	ld	hl, #(_Face2 + 0x0025)
      0000BC 36 A5                  140 	ld	(hl), #0xa5
      0000BE 21r26r00               141 	ld	hl, #(_Face2 + 0x0026)
      0000C1 36 FF                  142 	ld	(hl), #0xff
      0000C3 21r27r00               143 	ld	hl, #(_Face2 + 0x0027)
      0000C6 36 81                  144 	ld	(hl), #0x81
      0000C8 21r28r00               145 	ld	hl, #(_Face2 + 0x0028)
      0000CB 36 FF                  146 	ld	(hl), #0xff
      0000CD 21r29r00               147 	ld	hl, #(_Face2 + 0x0029)
      0000D0 36 A5                  148 	ld	(hl), #0xa5
      0000D2 21r2Ar00               149 	ld	hl, #(_Face2 + 0x002a)
      0000D5 36 FF                  150 	ld	(hl), #0xff
      0000D7 21r2Br00               151 	ld	hl, #(_Face2 + 0x002b)
      0000DA 36 99                  152 	ld	(hl), #0x99
      0000DC 21r2Cr00               153 	ld	hl, #(_Face2 + 0x002c)
      0000DF 36 FF                  154 	ld	(hl), #0xff
      0000E1 21r2Dr00               155 	ld	hl, #(_Face2 + 0x002d)
      0000E4 36 81                  156 	ld	(hl), #0x81
      0000E6 21r2Er00               157 	ld	hl, #(_Face2 + 0x002e)
      0000E9 36 7E                  158 	ld	(hl), #0x7e
      0000EB 21r2Fr00               159 	ld	hl, #(_Face2 + 0x002f)
      0000EE 36 7E                  160 	ld	(hl), #0x7e
      0000F0 21r30r00               161 	ld	hl, #(_Face2 + 0x0030)
      0000F3 36 7E                  162 	ld	(hl), #0x7e
      0000F5 21r31r00               163 	ld	hl, #(_Face2 + 0x0031)
      0000F8 36 7E                  164 	ld	(hl), #0x7e
      0000FA 21r32r00               165 	ld	hl, #(_Face2 + 0x0032)
      0000FD 36 FF                  166 	ld	(hl), #0xff
      0000FF 21r33r00               167 	ld	hl, #(_Face2 + 0x0033)
      000102 36 81                  168 	ld	(hl), #0x81
      000104 21r34r00               169 	ld	hl, #(_Face2 + 0x0034)
      000107 36 FF                  170 	ld	(hl), #0xff
      000109 21r35r00               171 	ld	hl, #(_Face2 + 0x0035)
      00010C 36 A5                  172 	ld	(hl), #0xa5
      00010E 21r36r00               173 	ld	hl, #(_Face2 + 0x0036)
      000111 36 FF                  174 	ld	(hl), #0xff
      000113 21r37r00               175 	ld	hl, #(_Face2 + 0x0037)
      000116 36 81                  176 	ld	(hl), #0x81
      000118 21r38r00               177 	ld	hl, #(_Face2 + 0x0038)
      00011B 36 FF                  178 	ld	(hl), #0xff
      00011D 21r39r00               179 	ld	hl, #(_Face2 + 0x0039)
      000120 36 81                  180 	ld	(hl), #0x81
      000122 21r3Ar00               181 	ld	hl, #(_Face2 + 0x003a)
      000125 36 FF                  182 	ld	(hl), #0xff
      000127 21r3Br00               183 	ld	hl, #(_Face2 + 0x003b)
      00012A 36 BD                  184 	ld	(hl), #0xbd
      00012C 21r3Cr00               185 	ld	hl, #(_Face2 + 0x003c)
      00012F 36 FF                  186 	ld	(hl), #0xff
      000131 21r3Dr00               187 	ld	hl, #(_Face2 + 0x003d)
      000134 36 81                  188 	ld	(hl), #0x81
      000136 21r3Er00               189 	ld	hl, #(_Face2 + 0x003e)
      000139 36 7E                  190 	ld	(hl), #0x7e
      00013B 21r3Fr00               191 	ld	hl, #(_Face2 + 0x003f)
      00013E 36 7E                  192 	ld	(hl), #0x7e
                                    193 ;maze_tiles.c:26: unsigned char maze_tiles[] =
      000140 21r40r00               194 	ld	hl, #_maze_tiles
      000143 36 00                  195 	ld	(hl), #0x00
      000145 21r41r00               196 	ld	hl, #(_maze_tiles + 0x0001)
      000148 36 00                  197 	ld	(hl), #0x00
      00014A 21r42r00               198 	ld	hl, #(_maze_tiles + 0x0002)
      00014D 36 00                  199 	ld	(hl), #0x00
      00014F 21r43r00               200 	ld	hl, #(_maze_tiles + 0x0003)
      000152 36 00                  201 	ld	(hl), #0x00
      000154 21r44r00               202 	ld	hl, #(_maze_tiles + 0x0004)
      000157 36 00                  203 	ld	(hl), #0x00
      000159 21r45r00               204 	ld	hl, #(_maze_tiles + 0x0005)
      00015C 36 00                  205 	ld	(hl), #0x00
      00015E 21r46r00               206 	ld	hl, #(_maze_tiles + 0x0006)
      000161 36 00                  207 	ld	(hl), #0x00
      000163 21r47r00               208 	ld	hl, #(_maze_tiles + 0x0007)
      000166 36 00                  209 	ld	(hl), #0x00
      000168 21r48r00               210 	ld	hl, #(_maze_tiles + 0x0008)
      00016B 36 00                  211 	ld	(hl), #0x00
      00016D 21r49r00               212 	ld	hl, #(_maze_tiles + 0x0009)
      000170 36 00                  213 	ld	(hl), #0x00
      000172 21r4Ar00               214 	ld	hl, #(_maze_tiles + 0x000a)
      000175 36 00                  215 	ld	(hl), #0x00
      000177 21r4Br00               216 	ld	hl, #(_maze_tiles + 0x000b)
      00017A 36 00                  217 	ld	(hl), #0x00
      00017C 21r4Cr00               218 	ld	hl, #(_maze_tiles + 0x000c)
      00017F 36 00                  219 	ld	(hl), #0x00
      000181 21r4Dr00               220 	ld	hl, #(_maze_tiles + 0x000d)
      000184 36 00                  221 	ld	(hl), #0x00
      000186 21r4Er00               222 	ld	hl, #(_maze_tiles + 0x000e)
      000189 36 00                  223 	ld	(hl), #0x00
      00018B 21r4Fr00               224 	ld	hl, #(_maze_tiles + 0x000f)
      00018E 36 00                  225 	ld	(hl), #0x00
      000190 21r50r00               226 	ld	hl, #(_maze_tiles + 0x0010)
      000193 36 FE                  227 	ld	(hl), #0xfe
      000195 21r51r00               228 	ld	hl, #(_maze_tiles + 0x0011)
      000198 36 FE                  229 	ld	(hl), #0xfe
      00019A 21r52r00               230 	ld	hl, #(_maze_tiles + 0x0012)
      00019D 36 81                  231 	ld	(hl), #0x81
      00019F 21r53r00               232 	ld	hl, #(_maze_tiles + 0x0013)
      0001A2 36 B3                  233 	ld	(hl), #0xb3
      0001A4 21r54r00               234 	ld	hl, #(_maze_tiles + 0x0014)
      0001A7 36 83                  235 	ld	(hl), #0x83
      0001A9 21r55r00               236 	ld	hl, #(_maze_tiles + 0x0015)
      0001AC 36 ED                  237 	ld	(hl), #0xed
      0001AE 21r56r00               238 	ld	hl, #(_maze_tiles + 0x0016)
      0001B1 36 A5                  239 	ld	(hl), #0xa5
      0001B3 21r57r00               240 	ld	hl, #(_maze_tiles + 0x0017)
      0001B6 36 D9                  241 	ld	(hl), #0xd9
      0001B8 21r58r00               242 	ld	hl, #(_maze_tiles + 0x0018)
      0001BB 36 FD                  243 	ld	(hl), #0xfd
      0001BD 21r59r00               244 	ld	hl, #(_maze_tiles + 0x0019)
      0001C0 36 83                  245 	ld	(hl), #0x83
      0001C2 21r5Ar00               246 	ld	hl, #(_maze_tiles + 0x001a)
      0001C5 36 C1                  247 	ld	(hl), #0xc1
      0001C7 21r5Br00               248 	ld	hl, #(_maze_tiles + 0x001b)
      0001CA 36 AF                  249 	ld	(hl), #0xaf
      0001CC 21r5Cr00               250 	ld	hl, #(_maze_tiles + 0x001c)
      0001CF 36 AD                  251 	ld	(hl), #0xad
      0001D1 21r5Dr00               252 	ld	hl, #(_maze_tiles + 0x001d)
      0001D4 36 D1                  253 	ld	(hl), #0xd1
      0001D6 21r5Er00               254 	ld	hl, #(_maze_tiles + 0x001e)
      0001D9 36 FF                  255 	ld	(hl), #0xff
      0001DB 21r5Fr00               256 	ld	hl, #(_maze_tiles + 0x001f)
      0001DE 36 FF                  257 	ld	(hl), #0xff
      0001E0 21r60r00               258 	ld	hl, #(_maze_tiles + 0x0020)
      0001E3 36 00                  259 	ld	(hl), #0x00
      0001E5 21r61r00               260 	ld	hl, #(_maze_tiles + 0x0021)
      0001E8 36 00                  261 	ld	(hl), #0x00
      0001EA 21r62r00               262 	ld	hl, #(_maze_tiles + 0x0022)
      0001ED 36 7E                  263 	ld	(hl), #0x7e
      0001EF 21r63r00               264 	ld	hl, #(_maze_tiles + 0x0023)
      0001F2 36 7E                  265 	ld	(hl), #0x7e
      0001F4 21r64r00               266 	ld	hl, #(_maze_tiles + 0x0024)
      0001F7 36 7A                  267 	ld	(hl), #0x7a
      0001F9 21r65r00               268 	ld	hl, #(_maze_tiles + 0x0025)
      0001FC 36 46                  269 	ld	(hl), #0x46
      0001FE 21r66r00               270 	ld	hl, #(_maze_tiles + 0x0026)
      000201 36 76                  271 	ld	(hl), #0x76
      000203 21r67r00               272 	ld	hl, #(_maze_tiles + 0x0027)
      000206 36 4A                  273 	ld	(hl), #0x4a
      000208 21r68r00               274 	ld	hl, #(_maze_tiles + 0x0028)
      00020B 36 72                  275 	ld	(hl), #0x72
      00020D 21r69r00               276 	ld	hl, #(_maze_tiles + 0x0029)
      000210 36 4E                  277 	ld	(hl), #0x4e
      000212 21r6Ar00               278 	ld	hl, #(_maze_tiles + 0x002a)
      000215 36 6A                  279 	ld	(hl), #0x6a
      000217 21r6Br00               280 	ld	hl, #(_maze_tiles + 0x002b)
      00021A 36 5E                  281 	ld	(hl), #0x5e
      00021C 21r6Cr00               282 	ld	hl, #(_maze_tiles + 0x002c)
      00021F 36 42                  283 	ld	(hl), #0x42
      000221 21r6Dr00               284 	ld	hl, #(_maze_tiles + 0x002d)
      000224 36 7E                  285 	ld	(hl), #0x7e
      000226 21r6Er00               286 	ld	hl, #(_maze_tiles + 0x002e)
      000229 36 42                  287 	ld	(hl), #0x42
      00022B 21r6Fr00               288 	ld	hl, #(_maze_tiles + 0x002f)
      00022E 36 7E                  289 	ld	(hl), #0x7e
      000230 21r70r00               290 	ld	hl, #(_maze_tiles + 0x0030)
      000233 36 00                  291 	ld	(hl), #0x00
      000235 21r71r00               292 	ld	hl, #(_maze_tiles + 0x0031)
      000238 36 38                  293 	ld	(hl), #0x38
      00023A 21r72r00               294 	ld	hl, #(_maze_tiles + 0x0032)
      00023D 36 00                  295 	ld	(hl), #0x00
      00023F 21r73r00               296 	ld	hl, #(_maze_tiles + 0x0033)
      000242 36 44                  297 	ld	(hl), #0x44
      000244 21r74r00               298 	ld	hl, #(_maze_tiles + 0x0034)
      000247 36 00                  299 	ld	(hl), #0x00
      000249 21r75r00               300 	ld	hl, #(_maze_tiles + 0x0035)
      00024C 36 44                  301 	ld	(hl), #0x44
      00024E 21r76r00               302 	ld	hl, #(_maze_tiles + 0x0036)
      000251 36 00                  303 	ld	(hl), #0x00
      000253 21r77r00               304 	ld	hl, #(_maze_tiles + 0x0037)
      000256 36 38                  305 	ld	(hl), #0x38
      000258 21r78r00               306 	ld	hl, #(_maze_tiles + 0x0038)
      00025B 36 00                  307 	ld	(hl), #0x00
      00025D 21r79r00               308 	ld	hl, #(_maze_tiles + 0x0039)
      000260 36 10                  309 	ld	(hl), #0x10
      000262 21r7Ar00               310 	ld	hl, #(_maze_tiles + 0x003a)
      000265 36 00                  311 	ld	(hl), #0x00
      000267 21r7Br00               312 	ld	hl, #(_maze_tiles + 0x003b)
      00026A 36 1C                  313 	ld	(hl), #0x1c
      00026C 21r7Cr00               314 	ld	hl, #(_maze_tiles + 0x003c)
      00026F 36 00                  315 	ld	(hl), #0x00
      000271 21r7Dr00               316 	ld	hl, #(_maze_tiles + 0x003d)
      000274 36 10                  317 	ld	(hl), #0x10
      000276 21r7Er00               318 	ld	hl, #(_maze_tiles + 0x003e)
      000279 36 00                  319 	ld	(hl), #0x00
      00027B 21r7Fr00               320 	ld	hl, #(_maze_tiles + 0x003f)
      00027E 36 1C                  321 	ld	(hl), #0x1c
                                    322 ;maze.c:25: unsigned char maze[] =
      000280 21r80r00               323 	ld	hl, #_maze
      000283 36 01                  324 	ld	(hl), #0x01
      000285 21r81r00               325 	ld	hl, #(_maze + 0x0001)
      000288 36 01                  326 	ld	(hl), #0x01
      00028A 21r82r00               327 	ld	hl, #(_maze + 0x0002)
      00028D 36 01                  328 	ld	(hl), #0x01
      00028F 21r83r00               329 	ld	hl, #(_maze + 0x0003)
      000292 36 01                  330 	ld	(hl), #0x01
      000294 21r84r00               331 	ld	hl, #(_maze + 0x0004)
      000297 36 01                  332 	ld	(hl), #0x01
      000299 21r85r00               333 	ld	hl, #(_maze + 0x0005)
      00029C 36 01                  334 	ld	(hl), #0x01
      00029E 21r86r00               335 	ld	hl, #(_maze + 0x0006)
      0002A1 36 01                  336 	ld	(hl), #0x01
      0002A3 21r87r00               337 	ld	hl, #(_maze + 0x0007)
      0002A6 36 01                  338 	ld	(hl), #0x01
      0002A8 21r88r00               339 	ld	hl, #(_maze + 0x0008)
      0002AB 36 01                  340 	ld	(hl), #0x01
      0002AD 21r89r00               341 	ld	hl, #(_maze + 0x0009)
      0002B0 36 01                  342 	ld	(hl), #0x01
      0002B2 21r8Ar00               343 	ld	hl, #(_maze + 0x000a)
      0002B5 36 01                  344 	ld	(hl), #0x01
      0002B7 21r8Br00               345 	ld	hl, #(_maze + 0x000b)
      0002BA 36 01                  346 	ld	(hl), #0x01
      0002BC 21r8Cr00               347 	ld	hl, #(_maze + 0x000c)
      0002BF 36 01                  348 	ld	(hl), #0x01
      0002C1 21r8Dr00               349 	ld	hl, #(_maze + 0x000d)
      0002C4 36 01                  350 	ld	(hl), #0x01
      0002C6 21r8Er00               351 	ld	hl, #(_maze + 0x000e)
      0002C9 36 01                  352 	ld	(hl), #0x01
      0002CB 21r8Fr00               353 	ld	hl, #(_maze + 0x000f)
      0002CE 36 01                  354 	ld	(hl), #0x01
      0002D0 21r90r00               355 	ld	hl, #(_maze + 0x0010)
      0002D3 36 01                  356 	ld	(hl), #0x01
      0002D5 21r91r00               357 	ld	hl, #(_maze + 0x0011)
      0002D8 36 01                  358 	ld	(hl), #0x01
      0002DA 21r92r00               359 	ld	hl, #(_maze + 0x0012)
      0002DD 36 01                  360 	ld	(hl), #0x01
      0002DF 21r93r00               361 	ld	hl, #(_maze + 0x0013)
      0002E2 36 01                  362 	ld	(hl), #0x01
      0002E4 21r94r00               363 	ld	hl, #(_maze + 0x0014)
      0002E7 36 01                  364 	ld	(hl), #0x01
      0002E9 21r95r00               365 	ld	hl, #(_maze + 0x0015)
      0002EC 36 00                  366 	ld	(hl), #0x00
      0002EE 21r96r00               367 	ld	hl, #(_maze + 0x0016)
      0002F1 36 01                  368 	ld	(hl), #0x01
      0002F3 21r97r00               369 	ld	hl, #(_maze + 0x0017)
      0002F6 36 00                  370 	ld	(hl), #0x00
      0002F8 21r98r00               371 	ld	hl, #(_maze + 0x0018)
      0002FB 36 00                  372 	ld	(hl), #0x00
      0002FD 21r99r00               373 	ld	hl, #(_maze + 0x0019)
      000300 36 00                  374 	ld	(hl), #0x00
      000302 21r9Ar00               375 	ld	hl, #(_maze + 0x001a)
      000305 36 01                  376 	ld	(hl), #0x01
      000307 21r9Br00               377 	ld	hl, #(_maze + 0x001b)
      00030A 36 00                  378 	ld	(hl), #0x00
      00030C 21r9Cr00               379 	ld	hl, #(_maze + 0x001c)
      00030F 36 00                  380 	ld	(hl), #0x00
      000311 21r9Dr00               381 	ld	hl, #(_maze + 0x001d)
      000314 36 00                  382 	ld	(hl), #0x00
      000316 21r9Er00               383 	ld	hl, #(_maze + 0x001e)
      000319 36 00                  384 	ld	(hl), #0x00
      00031B 21r9Fr00               385 	ld	hl, #(_maze + 0x001f)
      00031E 36 00                  386 	ld	(hl), #0x00
      000320 21rA0r00               387 	ld	hl, #(_maze + 0x0020)
      000323 36 00                  388 	ld	(hl), #0x00
      000325 21rA1r00               389 	ld	hl, #(_maze + 0x0021)
      000328 36 00                  390 	ld	(hl), #0x00
      00032A 21rA2r00               391 	ld	hl, #(_maze + 0x0022)
      00032D 36 00                  392 	ld	(hl), #0x00
      00032F 21rA3r00               393 	ld	hl, #(_maze + 0x0023)
      000332 36 00                  394 	ld	(hl), #0x00
      000334 21rA4r00               395 	ld	hl, #(_maze + 0x0024)
      000337 36 00                  396 	ld	(hl), #0x00
      000339 21rA5r00               397 	ld	hl, #(_maze + 0x0025)
      00033C 36 00                  398 	ld	(hl), #0x00
      00033E 21rA6r00               399 	ld	hl, #(_maze + 0x0026)
      000341 36 00                  400 	ld	(hl), #0x00
      000343 21rA7r00               401 	ld	hl, #(_maze + 0x0027)
      000346 36 01                  402 	ld	(hl), #0x01
      000348 21rA8r00               403 	ld	hl, #(_maze + 0x0028)
      00034B 36 01                  404 	ld	(hl), #0x01
      00034D 21rA9r00               405 	ld	hl, #(_maze + 0x0029)
      000350 36 00                  406 	ld	(hl), #0x00
      000352 21rAAr00               407 	ld	hl, #(_maze + 0x002a)
      000355 36 01                  408 	ld	(hl), #0x01
      000357 21rABr00               409 	ld	hl, #(_maze + 0x002b)
      00035A 36 00                  410 	ld	(hl), #0x00
      00035C 21rACr00               411 	ld	hl, #(_maze + 0x002c)
      00035F 36 01                  412 	ld	(hl), #0x01
      000361 21rADr00               413 	ld	hl, #(_maze + 0x002d)
      000364 36 00                  414 	ld	(hl), #0x00
      000366 21rAEr00               415 	ld	hl, #(_maze + 0x002e)
      000369 36 01                  416 	ld	(hl), #0x01
      00036B 21rAFr00               417 	ld	hl, #(_maze + 0x002f)
      00036E 36 00                  418 	ld	(hl), #0x00
      000370 21rB0r00               419 	ld	hl, #(_maze + 0x0030)
      000373 36 00                  420 	ld	(hl), #0x00
      000375 21rB1r00               421 	ld	hl, #(_maze + 0x0031)
      000378 36 00                  422 	ld	(hl), #0x00
      00037A 21rB2r00               423 	ld	hl, #(_maze + 0x0032)
      00037D 36 00                  424 	ld	(hl), #0x00
      00037F 21rB3r00               425 	ld	hl, #(_maze + 0x0033)
      000382 36 01                  426 	ld	(hl), #0x01
      000384 21rB4r00               427 	ld	hl, #(_maze + 0x0034)
      000387 36 00                  428 	ld	(hl), #0x00
      000389 21rB5r00               429 	ld	hl, #(_maze + 0x0035)
      00038C 36 01                  430 	ld	(hl), #0x01
      00038E 21rB6r00               431 	ld	hl, #(_maze + 0x0036)
      000391 36 00                  432 	ld	(hl), #0x00
      000393 21rB7r00               433 	ld	hl, #(_maze + 0x0037)
      000396 36 00                  434 	ld	(hl), #0x00
      000398 21rB8r00               435 	ld	hl, #(_maze + 0x0038)
      00039B 36 00                  436 	ld	(hl), #0x00
      00039D 21rB9r00               437 	ld	hl, #(_maze + 0x0039)
      0003A0 36 00                  438 	ld	(hl), #0x00
      0003A2 21rBAr00               439 	ld	hl, #(_maze + 0x003a)
      0003A5 36 00                  440 	ld	(hl), #0x00
      0003A7 21rBBr00               441 	ld	hl, #(_maze + 0x003b)
      0003AA 36 01                  442 	ld	(hl), #0x01
      0003AC 21rBCr00               443 	ld	hl, #(_maze + 0x003c)
      0003AF 36 01                  444 	ld	(hl), #0x01
      0003B1 21rBDr00               445 	ld	hl, #(_maze + 0x003d)
      0003B4 36 00                  446 	ld	(hl), #0x00
      0003B6 21rBEr00               447 	ld	hl, #(_maze + 0x003e)
      0003B9 36 01                  448 	ld	(hl), #0x01
      0003BB 21rBFr00               449 	ld	hl, #(_maze + 0x003f)
      0003BE 36 00                  450 	ld	(hl), #0x00
      0003C0 21rC0r00               451 	ld	hl, #(_maze + 0x0040)
      0003C3 36 01                  452 	ld	(hl), #0x01
      0003C5 21rC1r00               453 	ld	hl, #(_maze + 0x0041)
      0003C8 36 00                  454 	ld	(hl), #0x00
      0003CA 21rC2r00               455 	ld	hl, #(_maze + 0x0042)
      0003CD 36 01                  456 	ld	(hl), #0x01
      0003CF 21rC3r00               457 	ld	hl, #(_maze + 0x0043)
      0003D2 36 00                  458 	ld	(hl), #0x00
      0003D4 21rC4r00               459 	ld	hl, #(_maze + 0x0044)
      0003D7 36 00                  460 	ld	(hl), #0x00
      0003D9 21rC5r00               461 	ld	hl, #(_maze + 0x0045)
      0003DC 36 00                  462 	ld	(hl), #0x00
      0003DE 21rC6r00               463 	ld	hl, #(_maze + 0x0046)
      0003E1 36 00                  464 	ld	(hl), #0x00
      0003E3 21rC7r00               465 	ld	hl, #(_maze + 0x0047)
      0003E6 36 01                  466 	ld	(hl), #0x01
      0003E8 21rC8r00               467 	ld	hl, #(_maze + 0x0048)
      0003EB 36 00                  468 	ld	(hl), #0x00
      0003ED 21rC9r00               469 	ld	hl, #(_maze + 0x0049)
      0003F0 36 01                  470 	ld	(hl), #0x01
      0003F2 21rCAr00               471 	ld	hl, #(_maze + 0x004a)
      0003F5 36 00                  472 	ld	(hl), #0x00
      0003F7 21rCBr00               473 	ld	hl, #(_maze + 0x004b)
      0003FA 36 00                  474 	ld	(hl), #0x00
      0003FC 21rCCr00               475 	ld	hl, #(_maze + 0x004c)
      0003FF 36 00                  476 	ld	(hl), #0x00
      000401 21rCDr00               477 	ld	hl, #(_maze + 0x004d)
      000404 36 00                  478 	ld	(hl), #0x00
      000406 21rCEr00               479 	ld	hl, #(_maze + 0x004e)
      000409 36 00                  480 	ld	(hl), #0x00
      00040B 21rCFr00               481 	ld	hl, #(_maze + 0x004f)
      00040E 36 01                  482 	ld	(hl), #0x01
      000410 21rD0r00               483 	ld	hl, #(_maze + 0x0050)
      000413 36 01                  484 	ld	(hl), #0x01
      000415 21rD1r00               485 	ld	hl, #(_maze + 0x0051)
      000418 36 00                  486 	ld	(hl), #0x00
      00041A 21rD2r00               487 	ld	hl, #(_maze + 0x0052)
      00041D 36 01                  488 	ld	(hl), #0x01
      00041F 21rD3r00               489 	ld	hl, #(_maze + 0x0053)
      000422 36 00                  490 	ld	(hl), #0x00
      000424 21rD4r00               491 	ld	hl, #(_maze + 0x0054)
      000427 36 01                  492 	ld	(hl), #0x01
      000429 21rD5r00               493 	ld	hl, #(_maze + 0x0055)
      00042C 36 00                  494 	ld	(hl), #0x00
      00042E 21rD6r00               495 	ld	hl, #(_maze + 0x0056)
      000431 36 01                  496 	ld	(hl), #0x01
      000433 21rD7r00               497 	ld	hl, #(_maze + 0x0057)
      000436 36 00                  498 	ld	(hl), #0x00
      000438 21rD8r00               499 	ld	hl, #(_maze + 0x0058)
      00043B 36 00                  500 	ld	(hl), #0x00
      00043D 21rD9r00               501 	ld	hl, #(_maze + 0x0059)
      000440 36 01                  502 	ld	(hl), #0x01
      000442 21rDAr00               503 	ld	hl, #(_maze + 0x005a)
      000445 36 00                  504 	ld	(hl), #0x00
      000447 21rDBr00               505 	ld	hl, #(_maze + 0x005b)
      00044A 36 00                  506 	ld	(hl), #0x00
      00044C 21rDCr00               507 	ld	hl, #(_maze + 0x005c)
      00044F 36 00                  508 	ld	(hl), #0x00
      000451 21rDDr00               509 	ld	hl, #(_maze + 0x005d)
      000454 36 00                  510 	ld	(hl), #0x00
      000456 21rDEr00               511 	ld	hl, #(_maze + 0x005e)
      000459 36 00                  512 	ld	(hl), #0x00
      00045B 21rDFr00               513 	ld	hl, #(_maze + 0x005f)
      00045E 36 01                  514 	ld	(hl), #0x01
      000460 21rE0r00               515 	ld	hl, #(_maze + 0x0060)
      000463 36 00                  516 	ld	(hl), #0x00
      000465 21rE1r00               517 	ld	hl, #(_maze + 0x0061)
      000468 36 00                  518 	ld	(hl), #0x00
      00046A 21rE2r00               519 	ld	hl, #(_maze + 0x0062)
      00046D 36 00                  520 	ld	(hl), #0x00
      00046F 21rE3r00               521 	ld	hl, #(_maze + 0x0063)
      000472 36 01                  522 	ld	(hl), #0x01
      000474 21rE4r00               523 	ld	hl, #(_maze + 0x0064)
      000477 36 01                  524 	ld	(hl), #0x01
      000479 21rE5r00               525 	ld	hl, #(_maze + 0x0065)
      00047C 36 00                  526 	ld	(hl), #0x00
      00047E 21rE6r00               527 	ld	hl, #(_maze + 0x0066)
      000481 36 01                  528 	ld	(hl), #0x01
      000483 21rE7r00               529 	ld	hl, #(_maze + 0x0067)
      000486 36 00                  530 	ld	(hl), #0x00
      000488 21rE8r00               531 	ld	hl, #(_maze + 0x0068)
      00048B 36 01                  532 	ld	(hl), #0x01
      00048D 21rE9r00               533 	ld	hl, #(_maze + 0x0069)
      000490 36 00                  534 	ld	(hl), #0x00
      000492 21rEAr00               535 	ld	hl, #(_maze + 0x006a)
      000495 36 01                  536 	ld	(hl), #0x01
      000497 21rEBr00               537 	ld	hl, #(_maze + 0x006b)
      00049A 36 00                  538 	ld	(hl), #0x00
      00049C 21rECr00               539 	ld	hl, #(_maze + 0x006c)
      00049F 36 00                  540 	ld	(hl), #0x00
      0004A1 21rEDr00               541 	ld	hl, #(_maze + 0x006d)
      0004A4 36 01                  542 	ld	(hl), #0x01
      0004A6 21rEEr00               543 	ld	hl, #(_maze + 0x006e)
      0004A9 36 01                  544 	ld	(hl), #0x01
      0004AB 21rEFr00               545 	ld	hl, #(_maze + 0x006f)
      0004AE 36 01                  546 	ld	(hl), #0x01
      0004B0 21rF0r00               547 	ld	hl, #(_maze + 0x0070)
      0004B3 36 01                  548 	ld	(hl), #0x01
      0004B5 21rF1r00               549 	ld	hl, #(_maze + 0x0071)
      0004B8 36 01                  550 	ld	(hl), #0x01
      0004BA 21rF2r00               551 	ld	hl, #(_maze + 0x0072)
      0004BD 36 01                  552 	ld	(hl), #0x01
      0004BF 21rF3r00               553 	ld	hl, #(_maze + 0x0073)
      0004C2 36 01                  554 	ld	(hl), #0x01
      0004C4 21rF4r00               555 	ld	hl, #(_maze + 0x0074)
      0004C7 36 00                  556 	ld	(hl), #0x00
      0004C9 21rF5r00               557 	ld	hl, #(_maze + 0x0075)
      0004CC 36 00                  558 	ld	(hl), #0x00
      0004CE 21rF6r00               559 	ld	hl, #(_maze + 0x0076)
      0004D1 36 00                  560 	ld	(hl), #0x00
      0004D3 21rF7r00               561 	ld	hl, #(_maze + 0x0077)
      0004D6 36 01                  562 	ld	(hl), #0x01
      0004D8 21rF8r00               563 	ld	hl, #(_maze + 0x0078)
      0004DB 36 01                  564 	ld	(hl), #0x01
      0004DD 21rF9r00               565 	ld	hl, #(_maze + 0x0079)
      0004E0 36 00                  566 	ld	(hl), #0x00
      0004E2 21rFAr00               567 	ld	hl, #(_maze + 0x007a)
      0004E5 36 01                  568 	ld	(hl), #0x01
      0004E7 21rFBr00               569 	ld	hl, #(_maze + 0x007b)
      0004EA 36 00                  570 	ld	(hl), #0x00
      0004EC 21rFCr00               571 	ld	hl, #(_maze + 0x007c)
      0004EF 36 01                  572 	ld	(hl), #0x01
      0004F1 21rFDr00               573 	ld	hl, #(_maze + 0x007d)
      0004F4 36 00                  574 	ld	(hl), #0x00
      0004F6 21rFEr00               575 	ld	hl, #(_maze + 0x007e)
      0004F9 36 01                  576 	ld	(hl), #0x01
      0004FB 21rFFr00               577 	ld	hl, #(_maze + 0x007f)
      0004FE 36 00                  578 	ld	(hl), #0x00
      000500 21r00r01               579 	ld	hl, #(_maze + 0x0080)
      000503 36 00                  580 	ld	(hl), #0x00
      000505 21r01r01               581 	ld	hl, #(_maze + 0x0081)
      000508 36 00                  582 	ld	(hl), #0x00
      00050A 21r02r01               583 	ld	hl, #(_maze + 0x0082)
      00050D 36 00                  584 	ld	(hl), #0x00
      00050F 21r03r01               585 	ld	hl, #(_maze + 0x0083)
      000512 36 00                  586 	ld	(hl), #0x00
      000514 21r04r01               587 	ld	hl, #(_maze + 0x0084)
      000517 36 00                  588 	ld	(hl), #0x00
      000519 21r05r01               589 	ld	hl, #(_maze + 0x0085)
      00051C 36 00                  590 	ld	(hl), #0x00
      00051E 21r06r01               591 	ld	hl, #(_maze + 0x0086)
      000521 36 00                  592 	ld	(hl), #0x00
      000523 21r07r01               593 	ld	hl, #(_maze + 0x0087)
      000526 36 00                  594 	ld	(hl), #0x00
      000528 21r08r01               595 	ld	hl, #(_maze + 0x0088)
      00052B 36 00                  596 	ld	(hl), #0x00
      00052D 21r09r01               597 	ld	hl, #(_maze + 0x0089)
      000530 36 00                  598 	ld	(hl), #0x00
      000532 21r0Ar01               599 	ld	hl, #(_maze + 0x008a)
      000535 36 00                  600 	ld	(hl), #0x00
      000537 21r0Br01               601 	ld	hl, #(_maze + 0x008b)
      00053A 36 01                  602 	ld	(hl), #0x01
      00053C 21r0Cr01               603 	ld	hl, #(_maze + 0x008c)
      00053F 36 01                  604 	ld	(hl), #0x01
      000541 21r0Dr01               605 	ld	hl, #(_maze + 0x008d)
      000544 36 00                  606 	ld	(hl), #0x00
      000546 21r0Er01               607 	ld	hl, #(_maze + 0x008e)
      000549 36 01                  608 	ld	(hl), #0x01
      00054B 21r0Fr01               609 	ld	hl, #(_maze + 0x008f)
      00054E 36 00                  610 	ld	(hl), #0x00
      000550 21r10r01               611 	ld	hl, #(_maze + 0x0090)
      000553 36 01                  612 	ld	(hl), #0x01
      000555 21r11r01               613 	ld	hl, #(_maze + 0x0091)
      000558 36 00                  614 	ld	(hl), #0x00
      00055A 21r12r01               615 	ld	hl, #(_maze + 0x0092)
      00055D 36 01                  616 	ld	(hl), #0x01
      00055F 21r13r01               617 	ld	hl, #(_maze + 0x0093)
      000562 36 01                  618 	ld	(hl), #0x01
      000564 21r14r01               619 	ld	hl, #(_maze + 0x0094)
      000567 36 01                  620 	ld	(hl), #0x01
      000569 21r15r01               621 	ld	hl, #(_maze + 0x0095)
      00056C 36 01                  622 	ld	(hl), #0x01
      00056E 21r16r01               623 	ld	hl, #(_maze + 0x0096)
      000571 36 01                  624 	ld	(hl), #0x01
      000573 21r17r01               625 	ld	hl, #(_maze + 0x0097)
      000576 36 01                  626 	ld	(hl), #0x01
      000578 21r18r01               627 	ld	hl, #(_maze + 0x0098)
      00057B 36 01                  628 	ld	(hl), #0x01
      00057D 21r19r01               629 	ld	hl, #(_maze + 0x0099)
      000580 36 01                  630 	ld	(hl), #0x01
      000582 21r1Ar01               631 	ld	hl, #(_maze + 0x009a)
      000585 36 01                  632 	ld	(hl), #0x01
      000587 21r1Br01               633 	ld	hl, #(_maze + 0x009b)
      00058A 36 01                  634 	ld	(hl), #0x01
      00058C 21r1Cr01               635 	ld	hl, #(_maze + 0x009c)
      00058F 36 00                  636 	ld	(hl), #0x00
      000591 21r1Dr01               637 	ld	hl, #(_maze + 0x009d)
      000594 36 00                  638 	ld	(hl), #0x00
      000596 21r1Er01               639 	ld	hl, #(_maze + 0x009e)
      000599 36 00                  640 	ld	(hl), #0x00
      00059B 21r1Fr01               641 	ld	hl, #(_maze + 0x009f)
      00059E 36 01                  642 	ld	(hl), #0x01
      0005A0 21r20r01               643 	ld	hl, #(_maze + 0x00a0)
      0005A3 36 01                  644 	ld	(hl), #0x01
      0005A5 21r21r01               645 	ld	hl, #(_maze + 0x00a1)
      0005A8 36 00                  646 	ld	(hl), #0x00
      0005AA 21r22r01               647 	ld	hl, #(_maze + 0x00a2)
      0005AD 36 01                  648 	ld	(hl), #0x01
      0005AF 21r23r01               649 	ld	hl, #(_maze + 0x00a3)
      0005B2 36 00                  650 	ld	(hl), #0x00
      0005B4 21r24r01               651 	ld	hl, #(_maze + 0x00a4)
      0005B7 36 01                  652 	ld	(hl), #0x01
      0005B9 21r25r01               653 	ld	hl, #(_maze + 0x00a5)
      0005BC 36 00                  654 	ld	(hl), #0x00
      0005BE 21r26r01               655 	ld	hl, #(_maze + 0x00a6)
      0005C1 36 00                  656 	ld	(hl), #0x00
      0005C3 21r27r01               657 	ld	hl, #(_maze + 0x00a7)
      0005C6 36 00                  658 	ld	(hl), #0x00
      0005C8 21r28r01               659 	ld	hl, #(_maze + 0x00a8)
      0005CB 36 02                  660 	ld	(hl), #0x02
      0005CD 21r29r01               661 	ld	hl, #(_maze + 0x00a9)
      0005D0 36 00                  662 	ld	(hl), #0x00
      0005D2 21r2Ar01               663 	ld	hl, #(_maze + 0x00aa)
      0005D5 36 00                  664 	ld	(hl), #0x00
      0005D7 21r2Br01               665 	ld	hl, #(_maze + 0x00ab)
      0005DA 36 00                  666 	ld	(hl), #0x00
      0005DC 21r2Cr01               667 	ld	hl, #(_maze + 0x00ac)
      0005DF 36 00                  668 	ld	(hl), #0x00
      0005E1 21r2Dr01               669 	ld	hl, #(_maze + 0x00ad)
      0005E4 36 00                  670 	ld	(hl), #0x00
      0005E6 21r2Er01               671 	ld	hl, #(_maze + 0x00ae)
      0005E9 36 00                  672 	ld	(hl), #0x00
      0005EB 21r2Fr01               673 	ld	hl, #(_maze + 0x00af)
      0005EE 36 01                  674 	ld	(hl), #0x01
      0005F0 21r30r01               675 	ld	hl, #(_maze + 0x00b0)
      0005F3 36 00                  676 	ld	(hl), #0x00
      0005F5 21r31r01               677 	ld	hl, #(_maze + 0x00b1)
      0005F8 36 00                  678 	ld	(hl), #0x00
      0005FA 21r32r01               679 	ld	hl, #(_maze + 0x00b2)
      0005FD 36 00                  680 	ld	(hl), #0x00
      0005FF 21r33r01               681 	ld	hl, #(_maze + 0x00b3)
      000602 36 01                  682 	ld	(hl), #0x01
      000604 21r34r01               683 	ld	hl, #(_maze + 0x00b4)
      000607 36 01                  684 	ld	(hl), #0x01
      000609 21r35r01               685 	ld	hl, #(_maze + 0x00b5)
      00060C 36 00                  686 	ld	(hl), #0x00
      00060E 21r36r01               687 	ld	hl, #(_maze + 0x00b6)
      000611 36 00                  688 	ld	(hl), #0x00
      000613 21r37r01               689 	ld	hl, #(_maze + 0x00b7)
      000616 36 00                  690 	ld	(hl), #0x00
      000618 21r38r01               691 	ld	hl, #(_maze + 0x00b8)
      00061B 36 01                  692 	ld	(hl), #0x01
      00061D 21r39r01               693 	ld	hl, #(_maze + 0x00b9)
      000620 36 00                  694 	ld	(hl), #0x00
      000622 21r3Ar01               695 	ld	hl, #(_maze + 0x00ba)
      000625 36 01                  696 	ld	(hl), #0x01
      000627 21r3Br01               697 	ld	hl, #(_maze + 0x00bb)
      00062A 36 01                  698 	ld	(hl), #0x01
      00062C 21r3Cr01               699 	ld	hl, #(_maze + 0x00bc)
      00062F 36 01                  700 	ld	(hl), #0x01
      000631 21r3Dr01               701 	ld	hl, #(_maze + 0x00bd)
      000634 36 01                  702 	ld	(hl), #0x01
      000636 21r3Er01               703 	ld	hl, #(_maze + 0x00be)
      000639 36 01                  704 	ld	(hl), #0x01
      00063B 21r3Fr01               705 	ld	hl, #(_maze + 0x00bf)
      00063E 36 01                  706 	ld	(hl), #0x01
      000640 21r40r01               707 	ld	hl, #(_maze + 0x00c0)
      000643 36 00                  708 	ld	(hl), #0x00
      000645 21r41r01               709 	ld	hl, #(_maze + 0x00c1)
      000648 36 01                  710 	ld	(hl), #0x01
      00064A 21r42r01               711 	ld	hl, #(_maze + 0x00c2)
      00064D 36 00                  712 	ld	(hl), #0x00
      00064F 21r43r01               713 	ld	hl, #(_maze + 0x00c3)
      000652 36 01                  714 	ld	(hl), #0x01
      000654 21r44r01               715 	ld	hl, #(_maze + 0x00c4)
      000657 36 00                  716 	ld	(hl), #0x00
      000659 21r45r01               717 	ld	hl, #(_maze + 0x00c5)
      00065C 36 00                  718 	ld	(hl), #0x00
      00065E 21r46r01               719 	ld	hl, #(_maze + 0x00c6)
      000661 36 00                  720 	ld	(hl), #0x00
      000663 21r47r01               721 	ld	hl, #(_maze + 0x00c7)
      000666 36 01                  722 	ld	(hl), #0x01
      000668 21r48r01               723 	ld	hl, #(_maze + 0x00c8)
      00066B 36 01                  724 	ld	(hl), #0x01
      00066D 21r49r01               725 	ld	hl, #(_maze + 0x00c9)
      000670 36 01                  726 	ld	(hl), #0x01
      000672 21r4Ar01               727 	ld	hl, #(_maze + 0x00ca)
      000675 36 01                  728 	ld	(hl), #0x01
      000677 21r4Br01               729 	ld	hl, #(_maze + 0x00cb)
      00067A 36 01                  730 	ld	(hl), #0x01
      00067C 21r4Cr01               731 	ld	hl, #(_maze + 0x00cc)
      00067F 36 01                  732 	ld	(hl), #0x01
      000681 21r4Dr01               733 	ld	hl, #(_maze + 0x00cd)
      000684 36 00                  734 	ld	(hl), #0x00
      000686 21r4Er01               735 	ld	hl, #(_maze + 0x00ce)
      000689 36 01                  736 	ld	(hl), #0x01
      00068B 21r4Fr01               737 	ld	hl, #(_maze + 0x00cf)
      00068E 36 00                  738 	ld	(hl), #0x00
      000690 21r50r01               739 	ld	hl, #(_maze + 0x00d0)
      000693 36 01                  740 	ld	(hl), #0x01
      000695 21r51r01               741 	ld	hl, #(_maze + 0x00d1)
      000698 36 01                  742 	ld	(hl), #0x01
      00069A 21r52r01               743 	ld	hl, #(_maze + 0x00d2)
      00069D 36 01                  744 	ld	(hl), #0x01
      00069F 21r53r01               745 	ld	hl, #(_maze + 0x00d3)
      0006A2 36 01                  746 	ld	(hl), #0x01
      0006A4 21r54r01               747 	ld	hl, #(_maze + 0x00d4)
      0006A7 36 00                  748 	ld	(hl), #0x00
      0006A9 21r55r01               749 	ld	hl, #(_maze + 0x00d5)
      0006AC 36 01                  750 	ld	(hl), #0x01
      0006AE 21r56r01               751 	ld	hl, #(_maze + 0x00d6)
      0006B1 36 00                  752 	ld	(hl), #0x00
      0006B3 21r57r01               753 	ld	hl, #(_maze + 0x00d7)
      0006B6 36 01                  754 	ld	(hl), #0x01
      0006B8 21r58r01               755 	ld	hl, #(_maze + 0x00d8)
      0006BB 36 00                  756 	ld	(hl), #0x00
      0006BD 21r59r01               757 	ld	hl, #(_maze + 0x00d9)
      0006C0 36 00                  758 	ld	(hl), #0x00
      0006C2 21r5Ar01               759 	ld	hl, #(_maze + 0x00da)
      0006C5 36 00                  760 	ld	(hl), #0x00
      0006C7 21r5Br01               761 	ld	hl, #(_maze + 0x00db)
      0006CA 36 01                  762 	ld	(hl), #0x01
      0006CC 21r5Cr01               763 	ld	hl, #(_maze + 0x00dc)
      0006CF 36 01                  764 	ld	(hl), #0x01
      0006D1 21r5Dr01               765 	ld	hl, #(_maze + 0x00dd)
      0006D4 36 00                  766 	ld	(hl), #0x00
      0006D6 21r5Er01               767 	ld	hl, #(_maze + 0x00de)
      0006D9 36 00                  768 	ld	(hl), #0x00
      0006DB 21r5Fr01               769 	ld	hl, #(_maze + 0x00df)
      0006DE 36 00                  770 	ld	(hl), #0x00
      0006E0 21r60r01               771 	ld	hl, #(_maze + 0x00e0)
      0006E3 36 00                  772 	ld	(hl), #0x00
      0006E5 21r61r01               773 	ld	hl, #(_maze + 0x00e1)
      0006E8 36 00                  774 	ld	(hl), #0x00
      0006EA 21r62r01               775 	ld	hl, #(_maze + 0x00e2)
      0006ED 36 01                  776 	ld	(hl), #0x01
      0006EF 21r63r01               777 	ld	hl, #(_maze + 0x00e3)
      0006F2 36 00                  778 	ld	(hl), #0x00
      0006F4 21r64r01               779 	ld	hl, #(_maze + 0x00e4)
      0006F7 36 01                  780 	ld	(hl), #0x01
      0006F9 21r65r01               781 	ld	hl, #(_maze + 0x00e5)
      0006FC 36 01                  782 	ld	(hl), #0x01
      0006FE 21r66r01               783 	ld	hl, #(_maze + 0x00e6)
      000701 36 01                  784 	ld	(hl), #0x01
      000703 21r67r01               785 	ld	hl, #(_maze + 0x00e7)
      000706 36 01                  786 	ld	(hl), #0x01
      000708 21r68r01               787 	ld	hl, #(_maze + 0x00e8)
      00070B 36 00                  788 	ld	(hl), #0x00
      00070D 21r69r01               789 	ld	hl, #(_maze + 0x00e9)
      000710 36 01                  790 	ld	(hl), #0x01
      000712 21r6Ar01               791 	ld	hl, #(_maze + 0x00ea)
      000715 36 00                  792 	ld	(hl), #0x00
      000717 21r6Br01               793 	ld	hl, #(_maze + 0x00eb)
      00071A 36 01                  794 	ld	(hl), #0x01
      00071C 21r6Cr01               795 	ld	hl, #(_maze + 0x00ec)
      00071F 36 00                  796 	ld	(hl), #0x00
      000721 21r6Dr01               797 	ld	hl, #(_maze + 0x00ed)
      000724 36 00                  798 	ld	(hl), #0x00
      000726 21r6Er01               799 	ld	hl, #(_maze + 0x00ee)
      000729 36 00                  800 	ld	(hl), #0x00
      00072B 21r6Fr01               801 	ld	hl, #(_maze + 0x00ef)
      00072E 36 01                  802 	ld	(hl), #0x01
      000730 21r70r01               803 	ld	hl, #(_maze + 0x00f0)
      000733 36 01                  804 	ld	(hl), #0x01
      000735 21r71r01               805 	ld	hl, #(_maze + 0x00f1)
      000738 36 00                  806 	ld	(hl), #0x00
      00073A 21r72r01               807 	ld	hl, #(_maze + 0x00f2)
      00073D 36 01                  808 	ld	(hl), #0x01
      00073F 21r73r01               809 	ld	hl, #(_maze + 0x00f3)
      000742 36 01                  810 	ld	(hl), #0x01
      000744 21r74r01               811 	ld	hl, #(_maze + 0x00f4)
      000747 36 01                  812 	ld	(hl), #0x01
      000749 21r75r01               813 	ld	hl, #(_maze + 0x00f5)
      00074C 36 01                  814 	ld	(hl), #0x01
      00074E 21r76r01               815 	ld	hl, #(_maze + 0x00f6)
      000751 36 01                  816 	ld	(hl), #0x01
      000753 21r77r01               817 	ld	hl, #(_maze + 0x00f7)
      000756 36 00                  818 	ld	(hl), #0x00
      000758 21r78r01               819 	ld	hl, #(_maze + 0x00f8)
      00075B 36 00                  820 	ld	(hl), #0x00
      00075D 21r79r01               821 	ld	hl, #(_maze + 0x00f9)
      000760 36 00                  822 	ld	(hl), #0x00
      000762 21r7Ar01               823 	ld	hl, #(_maze + 0x00fa)
      000765 36 00                  824 	ld	(hl), #0x00
      000767 21r7Br01               825 	ld	hl, #(_maze + 0x00fb)
      00076A 36 00                  826 	ld	(hl), #0x00
      00076C 21r7Cr01               827 	ld	hl, #(_maze + 0x00fc)
      00076F 36 00                  828 	ld	(hl), #0x00
      000771 21r7Dr01               829 	ld	hl, #(_maze + 0x00fd)
      000774 36 01                  830 	ld	(hl), #0x01
      000776 21r7Er01               831 	ld	hl, #(_maze + 0x00fe)
      000779 36 00                  832 	ld	(hl), #0x00
      00077B 21r7Fr01               833 	ld	hl, #(_maze + 0x00ff)
      00077E 36 01                  834 	ld	(hl), #0x01
      000780 21r80r01               835 	ld	hl, #(_maze + 0x0100)
      000783 36 01                  836 	ld	(hl), #0x01
      000785 21r81r01               837 	ld	hl, #(_maze + 0x0101)
      000788 36 01                  838 	ld	(hl), #0x01
      00078A 21r82r01               839 	ld	hl, #(_maze + 0x0102)
      00078D 36 00                  840 	ld	(hl), #0x00
      00078F 21r83r01               841 	ld	hl, #(_maze + 0x0103)
      000792 36 01                  842 	ld	(hl), #0x01
      000794 21r84r01               843 	ld	hl, #(_maze + 0x0104)
      000797 36 01                  844 	ld	(hl), #0x01
      000799 21r85r01               845 	ld	hl, #(_maze + 0x0105)
      00079C 36 00                  846 	ld	(hl), #0x00
      00079E 21r86r01               847 	ld	hl, #(_maze + 0x0106)
      0007A1 36 01                  848 	ld	(hl), #0x01
      0007A3 21r87r01               849 	ld	hl, #(_maze + 0x0107)
      0007A6 36 00                  850 	ld	(hl), #0x00
      0007A8 21r88r01               851 	ld	hl, #(_maze + 0x0108)
      0007AB 36 01                  852 	ld	(hl), #0x01
      0007AD 21r89r01               853 	ld	hl, #(_maze + 0x0109)
      0007B0 36 01                  854 	ld	(hl), #0x01
      0007B2 21r8Ar01               855 	ld	hl, #(_maze + 0x010a)
      0007B5 36 01                  856 	ld	(hl), #0x01
      0007B7 21r8Br01               857 	ld	hl, #(_maze + 0x010b)
      0007BA 36 01                  858 	ld	(hl), #0x01
      0007BC 21r8Cr01               859 	ld	hl, #(_maze + 0x010c)
      0007BF 36 01                  860 	ld	(hl), #0x01
      0007C1 21r8Dr01               861 	ld	hl, #(_maze + 0x010d)
      0007C4 36 01                  862 	ld	(hl), #0x01
      0007C6 21r8Er01               863 	ld	hl, #(_maze + 0x010e)
      0007C9 36 01                  864 	ld	(hl), #0x01
      0007CB 21r8Fr01               865 	ld	hl, #(_maze + 0x010f)
      0007CE 36 01                  866 	ld	(hl), #0x01
      0007D0 21r90r01               867 	ld	hl, #(_maze + 0x0110)
      0007D3 36 01                  868 	ld	(hl), #0x01
      0007D5 21r91r01               869 	ld	hl, #(_maze + 0x0111)
      0007D8 36 01                  870 	ld	(hl), #0x01
      0007DA 21r92r01               871 	ld	hl, #(_maze + 0x0112)
      0007DD 36 00                  872 	ld	(hl), #0x00
      0007DF 21r93r01               873 	ld	hl, #(_maze + 0x0113)
      0007E2 36 00                  874 	ld	(hl), #0x00
      0007E4 21r94r01               875 	ld	hl, #(_maze + 0x0114)
      0007E7 36 00                  876 	ld	(hl), #0x00
      0007E9 21r95r01               877 	ld	hl, #(_maze + 0x0115)
      0007EC 36 01                  878 	ld	(hl), #0x01
      0007EE 21r96r01               879 	ld	hl, #(_maze + 0x0116)
      0007F1 36 00                  880 	ld	(hl), #0x00
      0007F3 21r97r01               881 	ld	hl, #(_maze + 0x0117)
      0007F6 36 01                  882 	ld	(hl), #0x01
      0007F8 21r98r01               883 	ld	hl, #(_maze + 0x0118)
      0007FB 36 01                  884 	ld	(hl), #0x01
      0007FD 21r99r01               885 	ld	hl, #(_maze + 0x0119)
      000800 36 00                  886 	ld	(hl), #0x00
      000802 21r9Ar01               887 	ld	hl, #(_maze + 0x011a)
      000805 36 01                  888 	ld	(hl), #0x01
      000807 21r9Br01               889 	ld	hl, #(_maze + 0x011b)
      00080A 36 00                  890 	ld	(hl), #0x00
      00080C 21r9Cr01               891 	ld	hl, #(_maze + 0x011c)
      00080F 36 00                  892 	ld	(hl), #0x00
      000811 21r9Dr01               893 	ld	hl, #(_maze + 0x011d)
      000814 36 00                  894 	ld	(hl), #0x00
      000816 21r9Er01               895 	ld	hl, #(_maze + 0x011e)
      000819 36 00                  896 	ld	(hl), #0x00
      00081B 21r9Fr01               897 	ld	hl, #(_maze + 0x011f)
      00081E 36 00                  898 	ld	(hl), #0x00
      000820 21rA0r01               899 	ld	hl, #(_maze + 0x0120)
      000823 36 00                  900 	ld	(hl), #0x00
      000825 21rA1r01               901 	ld	hl, #(_maze + 0x0121)
      000828 36 00                  902 	ld	(hl), #0x00
      00082A 21rA2r01               903 	ld	hl, #(_maze + 0x0122)
      00082D 36 00                  904 	ld	(hl), #0x00
      00082F 21rA3r01               905 	ld	hl, #(_maze + 0x0123)
      000832 36 00                  906 	ld	(hl), #0x00
      000834 21rA4r01               907 	ld	hl, #(_maze + 0x0124)
      000837 36 01                  908 	ld	(hl), #0x01
      000839 21rA5r01               909 	ld	hl, #(_maze + 0x0125)
      00083C 36 01                  910 	ld	(hl), #0x01
      00083E 21rA6r01               911 	ld	hl, #(_maze + 0x0126)
      000841 36 01                  912 	ld	(hl), #0x01
      000843 21rA7r01               913 	ld	hl, #(_maze + 0x0127)
      000846 36 01                  914 	ld	(hl), #0x01
      000848 21rA8r01               915 	ld	hl, #(_maze + 0x0128)
      00084B 36 00                  916 	ld	(hl), #0x00
      00084D 21rA9r01               917 	ld	hl, #(_maze + 0x0129)
      000850 36 01                  918 	ld	(hl), #0x01
      000852 21rAAr01               919 	ld	hl, #(_maze + 0x012a)
      000855 36 00                  920 	ld	(hl), #0x00
      000857 21rABr01               921 	ld	hl, #(_maze + 0x012b)
      00085A 36 01                  922 	ld	(hl), #0x01
      00085C 21rACr01               923 	ld	hl, #(_maze + 0x012c)
      00085F 36 01                  924 	ld	(hl), #0x01
      000861 21rADr01               925 	ld	hl, #(_maze + 0x012d)
      000864 36 00                  926 	ld	(hl), #0x00
      000866 21rAEr01               927 	ld	hl, #(_maze + 0x012e)
      000869 36 01                  928 	ld	(hl), #0x01
      00086B 21rAFr01               929 	ld	hl, #(_maze + 0x012f)
      00086E 36 01                  930 	ld	(hl), #0x01
      000870 21rB0r01               931 	ld	hl, #(_maze + 0x0130)
      000873 36 01                  932 	ld	(hl), #0x01
      000875 21rB1r01               933 	ld	hl, #(_maze + 0x0131)
      000878 36 01                  934 	ld	(hl), #0x01
      00087A 21rB2r01               935 	ld	hl, #(_maze + 0x0132)
      00087D 36 01                  936 	ld	(hl), #0x01
      00087F 21rB3r01               937 	ld	hl, #(_maze + 0x0133)
      000882 36 00                  938 	ld	(hl), #0x00
      000884 21rB4r01               939 	ld	hl, #(_maze + 0x0134)
      000887 36 01                  940 	ld	(hl), #0x01
      000889 21rB5r01               941 	ld	hl, #(_maze + 0x0135)
      00088C 36 01                  942 	ld	(hl), #0x01
      00088E 21rB6r01               943 	ld	hl, #(_maze + 0x0136)
      000891 36 01                  944 	ld	(hl), #0x01
      000893 21rB7r01               945 	ld	hl, #(_maze + 0x0137)
      000896 36 00                  946 	ld	(hl), #0x00
      000898 21rB8r01               947 	ld	hl, #(_maze + 0x0138)
      00089B 36 01                  948 	ld	(hl), #0x01
      00089D 21rB9r01               949 	ld	hl, #(_maze + 0x0139)
      0008A0 36 01                  950 	ld	(hl), #0x01
      0008A2 21rBAr01               951 	ld	hl, #(_maze + 0x013a)
      0008A5 36 01                  952 	ld	(hl), #0x01
      0008A7 21rBBr01               953 	ld	hl, #(_maze + 0x013b)
      0008AA 36 01                  954 	ld	(hl), #0x01
      0008AC 21rBCr01               955 	ld	hl, #(_maze + 0x013c)
      0008AF 36 00                  956 	ld	(hl), #0x00
      0008B1 21rBDr01               957 	ld	hl, #(_maze + 0x013d)
      0008B4 36 01                  958 	ld	(hl), #0x01
      0008B6 21rBEr01               959 	ld	hl, #(_maze + 0x013e)
      0008B9 36 01                  960 	ld	(hl), #0x01
      0008BB 21rBFr01               961 	ld	hl, #(_maze + 0x013f)
      0008BE 36 01                  962 	ld	(hl), #0x01
      0008C0 21rC0r01               963 	ld	hl, #(_maze + 0x0140)
      0008C3 36 01                  964 	ld	(hl), #0x01
      0008C5 21rC1r01               965 	ld	hl, #(_maze + 0x0141)
      0008C8 36 00                  966 	ld	(hl), #0x00
      0008CA 21rC2r01               967 	ld	hl, #(_maze + 0x0142)
      0008CD 36 00                  968 	ld	(hl), #0x00
      0008CF 21rC3r01               969 	ld	hl, #(_maze + 0x0143)
      0008D2 36 00                  970 	ld	(hl), #0x00
      0008D4 21rC4r01               971 	ld	hl, #(_maze + 0x0144)
      0008D7 36 00                  972 	ld	(hl), #0x00
      0008D9 21rC5r01               973 	ld	hl, #(_maze + 0x0145)
      0008DC 36 00                  974 	ld	(hl), #0x00
      0008DE 21rC6r01               975 	ld	hl, #(_maze + 0x0146)
      0008E1 36 00                  976 	ld	(hl), #0x00
      0008E3 21rC7r01               977 	ld	hl, #(_maze + 0x0147)
      0008E6 36 00                  978 	ld	(hl), #0x00
      0008E8 21rC8r01               979 	ld	hl, #(_maze + 0x0148)
      0008EB 36 01                  980 	ld	(hl), #0x01
      0008ED 21rC9r01               981 	ld	hl, #(_maze + 0x0149)
      0008F0 36 03                  982 	ld	(hl), #0x03
      0008F2 21rCAr01               983 	ld	hl, #(_maze + 0x014a)
      0008F5 36 00                  984 	ld	(hl), #0x00
      0008F7 21rCBr01               985 	ld	hl, #(_maze + 0x014b)
      0008FA 36 00                  986 	ld	(hl), #0x00
      0008FC 21rCCr01               987 	ld	hl, #(_maze + 0x014c)
      0008FF 36 01                  988 	ld	(hl), #0x01
      000901 21rCDr01               989 	ld	hl, #(_maze + 0x014d)
      000904 36 01                  990 	ld	(hl), #0x01
      000906 21rCEr01               991 	ld	hl, #(_maze + 0x014e)
      000909 36 01                  992 	ld	(hl), #0x01
      00090B 21rCFr01               993 	ld	hl, #(_maze + 0x014f)
      00090E 36 01                  994 	ld	(hl), #0x01
      000910 21rD0r01               995 	ld	hl, #(_maze + 0x0150)
      000913 36 00                  996 	ld	(hl), #0x00
      000915 21rD1r01               997 	ld	hl, #(_maze + 0x0151)
      000918 36 00                  998 	ld	(hl), #0x00
      00091A 21rD2r01               999 	ld	hl, #(_maze + 0x0152)
      00091D 36 00                 1000 	ld	(hl), #0x00
      00091F 21rD3r01              1001 	ld	hl, #(_maze + 0x0153)
      000922 36 01                 1002 	ld	(hl), #0x01
      000924 21rD4r01              1003 	ld	hl, #(_maze + 0x0154)
      000927 36 01                 1004 	ld	(hl), #0x01
      000929 21rD5r01              1005 	ld	hl, #(_maze + 0x0155)
      00092C 36 01                 1006 	ld	(hl), #0x01
      00092E 21rD6r01              1007 	ld	hl, #(_maze + 0x0156)
      000931 36 01                 1008 	ld	(hl), #0x01
      000933 21rD7r01              1009 	ld	hl, #(_maze + 0x0157)
      000936 36 01                 1010 	ld	(hl), #0x01
      000938 21rD8r01              1011 	ld	hl, #(_maze + 0x0158)
      00093B 36 01                 1012 	ld	(hl), #0x01
      00093D 21rD9r01              1013 	ld	hl, #(_maze + 0x0159)
      000940 36 01                 1014 	ld	(hl), #0x01
      000942 21rDAr01              1015 	ld	hl, #(_maze + 0x015a)
      000945 36 01                 1016 	ld	(hl), #0x01
      000947 21rDBr01              1017 	ld	hl, #(_maze + 0x015b)
      00094A 36 01                 1018 	ld	(hl), #0x01
      00094C 21rDCr01              1019 	ld	hl, #(_maze + 0x015c)
      00094F 36 01                 1020 	ld	(hl), #0x01
      000951 21rDDr01              1021 	ld	hl, #(_maze + 0x015d)
      000954 36 01                 1022 	ld	(hl), #0x01
      000956 21rDEr01              1023 	ld	hl, #(_maze + 0x015e)
      000959 36 01                 1024 	ld	(hl), #0x01
      00095B 21rDFr01              1025 	ld	hl, #(_maze + 0x015f)
      00095E 36 01                 1026 	ld	(hl), #0x01
      000960 21rE0r01              1027 	ld	hl, #(_maze + 0x0160)
      000963 36 01                 1028 	ld	(hl), #0x01
      000965 21rE1r01              1029 	ld	hl, #(_maze + 0x0161)
      000968 36 01                 1030 	ld	(hl), #0x01
      00096A 21rE2r01              1031 	ld	hl, #(_maze + 0x0162)
      00096D 36 01                 1032 	ld	(hl), #0x01
      00096F 21rE3r01              1033 	ld	hl, #(_maze + 0x0163)
      000972 36 01                 1034 	ld	(hl), #0x01
      000974 21rE4r01              1035 	ld	hl, #(_maze + 0x0164)
      000977 36 01                 1036 	ld	(hl), #0x01
      000979 21rE5r01              1037 	ld	hl, #(_maze + 0x0165)
      00097C 36 01                 1038 	ld	(hl), #0x01
      00097E 21rE6r01              1039 	ld	hl, #(_maze + 0x0166)
      000981 36 00                 1040 	ld	(hl), #0x00
      000983 21rE7r01              1041 	ld	hl, #(_maze + 0x0167)
      000986 36 01                 1042 	ld	(hl), #0x01
                                   1043 ;--------------------------------------------------------
                                   1044 ; Home
                                   1045 ;--------------------------------------------------------
                                   1046 	.area _HOME
                                   1047 	.area _HOME
                                   1048 ;--------------------------------------------------------
                                   1049 ; code
                                   1050 ;--------------------------------------------------------
                                   1051 	.area _CODE
                                   1052 ;main.c:12: UINT8 special_tile(UINT16 player_loc){
                                   1053 ;	---------------------------------
                                   1054 ; Function special_tile
                                   1055 ; ---------------------------------
      000000                       1056 _special_tile::
      000000 3B                    1057 	dec	sp
                                   1058 ;main.c:14: rtn = 0;
      000001 AF                    1059 	xor	a, a
      000002 F8 00                 1060 	ldhl	sp,	#0
      000004 77                    1061 	ld	(hl), a
                                   1062 ;main.c:18: set_bkg_tiles(player_loc%20, player_loc/20, 1, 1, blankmap);
      000005 21 14 00              1063 	ld	hl, #0x0014
      000008 E5                    1064 	push	hl
      000009 F8 05                 1065 	ldhl	sp,	#5
      00000B 2A                    1066 	ld	a, (hl+)
      00000C 66                    1067 	ld	h, (hl)
      00000D 6F                    1068 	ld	l, a
      00000E E5                    1069 	push	hl
      00000F CDr00r00              1070 	call	__divuint
      000012 E8 04                 1071 	add	sp, #4
      000014 43                    1072 	ld	b, e
      000015 4A                    1073 	ld	c, d
      000016 C5                    1074 	push	bc
      000017 21 14 00              1075 	ld	hl, #0x0014
      00001A E5                    1076 	push	hl
      00001B F8 07                 1077 	ldhl	sp,	#7
      00001D 2A                    1078 	ld	a, (hl+)
      00001E 66                    1079 	ld	h, (hl)
      00001F 6F                    1080 	ld	l, a
      000020 E5                    1081 	push	hl
      000021 CDr00r00              1082 	call	__moduint
      000024 E8 04                 1083 	add	sp, #4
      000026 C1                    1084 	pop	bc
                                   1085 ;main.c:15: if (player_loc == 329){
      000027 F8 03                 1086 	ldhl	sp,	#3
      000029 7E                    1087 	ld	a, (hl)
      00002A D6 49                 1088 	sub	a, #0x49
      00002C 20 1F                 1089 	jr	NZ, 00108$
      00002E 23                    1090 	inc	hl
      00002F 7E                    1091 	ld	a, (hl)
      000030 3D                    1092 	dec	a
      000031 20 1A                 1093 	jr	NZ, 00108$
                                   1094 ;main.c:17: has_key = 1;
      000033 21rEAr01              1095 	ld	hl, #_has_key
      000036 36 01                 1096 	ld	(hl), #0x01
                                   1097 ;main.c:18: set_bkg_tiles(player_loc%20, player_loc/20, 1, 1, blankmap);
      000038 21r9Fr00              1098 	ld	hl, #_blankmap
      00003B E5                    1099 	push	hl
      00003C 21 01 01              1100 	ld	hl, #0x0101
      00003F E5                    1101 	push	hl
      000040 4B                    1102 	ld	c, e
      000041 C5                    1103 	push	bc
      000042 CDr00r00              1104 	call	_set_bkg_tiles
      000045 E8 06                 1105 	add	sp, #6
                                   1106 ;main.c:19: rtn = 1;
      000047 F8 00                 1107 	ldhl	sp,	#0
      000049 36 01                 1108 	ld	(hl), #0x01
      00004B 18 4D                 1109 	jr	00109$
      00004D                       1110 00108$:
                                   1111 ;main.c:21: else if (player_loc == 168 && has_key){
      00004D F8 03                 1112 	ldhl	sp,	#3
      00004F 7E                    1113 	ld	a, (hl)
      000050 D6 A8                 1114 	sub	a, #0xa8
      000052 23                    1115 	inc	hl
      000053 B6                    1116 	or	a, (hl)
      000054 20 20                 1117 	jr	NZ, 00104$
      000056 FArEAr01              1118 	ld	a, (#_has_key)
      000059 B7                    1119 	or	a, a
      00005A 28 1A                 1120 	jr	Z, 00104$
                                   1121 ;main.c:23: open_door = 1;
      00005C 21rEBr01              1122 	ld	hl, #_open_door
      00005F 36 01                 1123 	ld	(hl), #0x01
                                   1124 ;main.c:24: set_bkg_tiles(player_loc%20, player_loc/20, 1, 1, blankmap);
      000061 21r9Fr00              1125 	ld	hl, #_blankmap
      000064 E5                    1126 	push	hl
      000065 21 01 01              1127 	ld	hl, #0x0101
      000068 E5                    1128 	push	hl
      000069 4B                    1129 	ld	c, e
      00006A C5                    1130 	push	bc
      00006B CDr00r00              1131 	call	_set_bkg_tiles
      00006E E8 06                 1132 	add	sp, #6
                                   1133 ;main.c:25: rtn = 1;
      000070 F8 00                 1134 	ldhl	sp,	#0
      000072 36 01                 1135 	ld	(hl), #0x01
      000074 18 24                 1136 	jr	00109$
      000076                       1137 00104$:
                                   1138 ;main.c:27: else if (player_loc == 358){
      000076 F8 03                 1139 	ldhl	sp,	#3
      000078 7E                    1140 	ld	a, (hl)
      000079 D6 66                 1141 	sub	a, #0x66
      00007B 20 1D                 1142 	jr	NZ, 00109$
      00007D 23                    1143 	inc	hl
      00007E 7E                    1144 	ld	a, (hl)
      00007F 3D                    1145 	dec	a
      000080 20 18                 1146 	jr	NZ, 00109$
                                   1147 ;main.c:29: game_running = 0;
      000082 21rECr01              1148 	ld	hl, #_game_running
      000085 36 00                 1149 	ld	(hl), #0x00
                                   1150 ;main.c:30: HIDE_SPRITES;
      000087 F0r00                 1151 	ldh	a, (_LCDC_REG+0)
      000089 E6 FD                 1152 	and	a, #0xfd
      00008B E0r00                 1153 	ldh	(_LCDC_REG+0),a
                                   1154 ;main.c:31: printf("\n \n \n \n \n \n \n \n \n      YOU WIN!!!!");
      00008D 21rA0r00              1155 	ld	hl, #___str_0
      000090 E5                    1156 	push	hl
      000091 CDr00r00              1157 	call	_printf
      000094 E8 02                 1158 	add	sp, #2
                                   1159 ;main.c:32: rtn = 1;
      000096 F8 00                 1160 	ldhl	sp,	#0
      000098 36 01                 1161 	ld	(hl), #0x01
      00009A                       1162 00109$:
                                   1163 ;main.c:34: return rtn;
      00009A F8 00                 1164 	ldhl	sp,	#0
      00009C 5E                    1165 	ld	e, (hl)
                                   1166 ;main.c:35: }
      00009D 33                    1167 	inc	sp
      00009E C9                    1168 	ret
      00009F                       1169 _blankmap:
      00009F 00                    1170 	.db #0x00	; 0
      0000A0                       1171 ___str_0:
      0000A0 0A                    1172 	.db 0x0a
      0000A1 20                    1173 	.ascii " "
      0000A2 0A                    1174 	.db 0x0a
      0000A3 20                    1175 	.ascii " "
      0000A4 0A                    1176 	.db 0x0a
      0000A5 20                    1177 	.ascii " "
      0000A6 0A                    1178 	.db 0x0a
      0000A7 20                    1179 	.ascii " "
      0000A8 0A                    1180 	.db 0x0a
      0000A9 20                    1181 	.ascii " "
      0000AA 0A                    1182 	.db 0x0a
      0000AB 20                    1183 	.ascii " "
      0000AC 0A                    1184 	.db 0x0a
      0000AD 20                    1185 	.ascii " "
      0000AE 0A                    1186 	.db 0x0a
      0000AF 20                    1187 	.ascii " "
      0000B0 0A                    1188 	.db 0x0a
      0000B1 20 20 20 20 20 20 59  1189 	.ascii "      YOU WIN!!!!"
             4F 55 20 57 49 4E 21
             21 21 21
      0000C2 00                    1190 	.db 0x00
                                   1191 ;main.c:37: UINT8 can_player_move(UINT8 newplayerx, UINT8 newplayery){
                                   1192 ;	---------------------------------
                                   1193 ; Function can_player_move
                                   1194 ; ---------------------------------
      0000C3                       1195 _can_player_move::
      0000C3 E8 FA                 1196 	add	sp, #-6
                                   1197 ;main.c:43: indexTLx = (newplayerx - 8)/8;
      0000C5 F8 08                 1198 	ldhl	sp,	#8
      0000C7 7E                    1199 	ld	a, (hl)
      0000C8 F8 02                 1200 	ldhl	sp,	#2
      0000CA 77                    1201 	ld	(hl), a
      0000CB AF                    1202 	xor	a, a
      0000CC 23                    1203 	inc	hl
      0000CD 32                    1204 	ld	(hl-), a
      0000CE 2A                    1205 	ld	a, (hl+)
      0000CF 5F                    1206 	ld	e, a
      0000D0 56                    1207 	ld	d, (hl)
      0000D1 21 08 00              1208 	ld	hl, #0x0008
      0000D4 7B                    1209 	ld	a, e
      0000D5 95                    1210 	sub	a, l
      0000D6 5F                    1211 	ld	e, a
      0000D7 7A                    1212 	ld	a, d
      0000D8 9C                    1213 	sbc	a, h
      0000D9 47                    1214 	ld	b, a
      0000DA 4B                    1215 	ld	c, e
      0000DB F8 04                 1216 	ldhl	sp,	#4
      0000DD 79                    1217 	ld	a, c
      0000DE 22                    1218 	ld	(hl+), a
      0000DF 70                    1219 	ld	(hl), b
      0000E0 CB 78                 1220 	bit	7, b
      0000E2 28 14                 1221 	jr	Z, 00105$
                                   1222 ;c
      0000E4 2B                    1223 	dec	hl
      0000E5 2B                    1224 	dec	hl
      0000E6 2B                    1225 	dec	hl
      0000E7 2A                    1226 	ld	a, (hl+)
      0000E8 5F                    1227 	ld	e, a
      0000E9 56                    1228 	ld	d, (hl)
      0000EA 21 FF FF              1229 	ld	hl, #0xffff
      0000ED 19                    1230 	add	hl, de
      0000EE E5                    1231 	push	hl
      0000EF 7D                    1232 	ld	a, l
      0000F0 F8 06                 1233 	ldhl	sp,	#6
      0000F2 77                    1234 	ld	(hl), a
      0000F3 E1                    1235 	pop	hl
      0000F4 7C                    1236 	ld	a, h
      0000F5 F8 05                 1237 	ldhl	sp,	#5
      0000F7 77                    1238 	ld	(hl), a
      0000F8                       1239 00105$:
      0000F8 F8 04                 1240 	ldhl	sp,	#4
      0000FA 7E                    1241 	ld	a, (hl)
      0000FB F8 00                 1242 	ldhl	sp,	#0
      0000FD 77                    1243 	ld	(hl), a
      0000FE F8 05                 1244 	ldhl	sp,	#5
      000100 7E                    1245 	ld	a, (hl)
      000101 F8 01                 1246 	ldhl	sp,	#1
      000103 77                    1247 	ld	(hl), a
      000104 CB 3E                 1248 	srl	(hl)
      000106 2B                    1249 	dec	hl
      000107 CB 1E                 1250 	rr	(hl)
      000109 23                    1251 	inc	hl
      00010A CB 3E                 1252 	srl	(hl)
      00010C 2B                    1253 	dec	hl
      00010D CB 1E                 1254 	rr	(hl)
      00010F 23                    1255 	inc	hl
      000110 CB 3E                 1256 	srl	(hl)
      000112 2B                    1257 	dec	hl
      000113 CB 1E                 1258 	rr	(hl)
                                   1259 ;main.c:44: indexTLy = (newplayery - 16)/8;
      000115 F8 09                 1260 	ldhl	sp,	#9
      000117 7E                    1261 	ld	a, (hl)
      000118 F8 02                 1262 	ldhl	sp,	#2
      00011A 77                    1263 	ld	(hl), a
      00011B AF                    1264 	xor	a, a
      00011C 23                    1265 	inc	hl
      00011D 32                    1266 	ld	(hl-), a
      00011E 2A                    1267 	ld	a, (hl+)
      00011F 5F                    1268 	ld	e, a
      000120 56                    1269 	ld	d, (hl)
      000121 21 10 00              1270 	ld	hl, #0x0010
      000124 7B                    1271 	ld	a, e
      000125 95                    1272 	sub	a, l
      000126 5F                    1273 	ld	e, a
      000127 7A                    1274 	ld	a, d
      000128 9C                    1275 	sbc	a, h
      000129 47                    1276 	ld	b, a
      00012A 4B                    1277 	ld	c, e
      00012B F8 04                 1278 	ldhl	sp,	#4
      00012D 79                    1279 	ld	a, c
      00012E 22                    1280 	ld	(hl+), a
      00012F 70                    1281 	ld	(hl), b
      000130 CB 78                 1282 	bit	7, b
      000132 28 14                 1283 	jr	Z, 00106$
                                   1284 ;c
      000134 2B                    1285 	dec	hl
      000135 2B                    1286 	dec	hl
      000136 2B                    1287 	dec	hl
      000137 2A                    1288 	ld	a, (hl+)
      000138 5F                    1289 	ld	e, a
      000139 56                    1290 	ld	d, (hl)
      00013A 21 F7 FF              1291 	ld	hl, #0xfff7
      00013D 19                    1292 	add	hl, de
      00013E E5                    1293 	push	hl
      00013F 7D                    1294 	ld	a, l
      000140 F8 06                 1295 	ldhl	sp,	#6
      000142 77                    1296 	ld	(hl), a
      000143 E1                    1297 	pop	hl
      000144 7C                    1298 	ld	a, h
      000145 F8 05                 1299 	ldhl	sp,	#5
      000147 77                    1300 	ld	(hl), a
      000148                       1301 00106$:
      000148 F8 04                 1302 	ldhl	sp,#4
      00014A 2A                    1303 	ld	a, (hl+)
      00014B 4F                    1304 	ld	c, a
      00014C 46                    1305 	ld	b, (hl)
      00014D CB 38                 1306 	srl	b
      00014F CB 19                 1307 	rr	c
      000151 CB 38                 1308 	srl	b
      000153 CB 19                 1309 	rr	c
      000155 CB 38                 1310 	srl	b
      000157 CB 19                 1311 	rr	c
                                   1312 ;main.c:46: tileindexTL = 20*indexTLy + indexTLx;
      000159 69                    1313 	ld	l, c
      00015A 60                    1314 	ld	h, b
      00015B 29                    1315 	add	hl, hl
      00015C 29                    1316 	add	hl, hl
      00015D 09                    1317 	add	hl, bc
      00015E 29                    1318 	add	hl, hl
      00015F 29                    1319 	add	hl, hl
      000160 4D                    1320 	ld	c, l
      000161 44                    1321 	ld	b, h
      000162 E1                    1322 	pop	hl
      000163 E5                    1323 	push	hl
      000164 09                    1324 	add	hl, bc
      000165 4D                    1325 	ld	c, l
      000166 44                    1326 	ld	b, h
                                   1327 ;main.c:48: result = special_tile(tileindexTL);
      000167 C5                    1328 	push	bc
      000168 C5                    1329 	push	bc
      000169 CDr00r00              1330 	call	_special_tile
      00016C E8 02                 1331 	add	sp, #2
      00016E C1                    1332 	pop	bc
                                   1333 ;main.c:49: if (maze[tileindexTL] == blankmap[0]){
      00016F 21r80r00              1334 	ld	hl, #_maze
      000172 09                    1335 	add	hl, bc
      000173 56                    1336 	ld	d, (hl)
      000174 01r9Fr00              1337 	ld	bc, #_blankmap+0
      000177 0A                    1338 	ld	a, (bc)
      000178 4F                    1339 	ld	c, a
      000179 7A                    1340 	ld	a, d
      00017A 91                    1341 	sub	a, c
      00017B 20 02                 1342 	jr	NZ, 00102$
                                   1343 ;main.c:50: result = 1;
      00017D 1E 01                 1344 	ld	e, #0x01
      00017F                       1345 00102$:
                                   1346 ;main.c:53: return result;
                                   1347 ;main.c:54: }
      00017F E8 06                 1348 	add	sp, #6
      000181 C9                    1349 	ret
                                   1350 ;main.c:56: void animate_sprite(UINT8 sprite_index, INT8 move_x, INT8 move_y){
                                   1351 ;	---------------------------------
                                   1352 ; Function animate_sprite
                                   1353 ; ---------------------------------
      000182                       1354 _animate_sprite::
                                   1355 ;main.c:57: while(move_x != 0){
      000182 F8 02                 1356 	ldhl	sp,	#2
      000184 4E                    1357 	ld	c, (hl)
      000185                       1358 00101$:
      000185 F8 03                 1359 	ldhl	sp,	#3
      000187 7E                    1360 	ld	a, (hl)
      000188 B7                    1361 	or	a, a
      000189 28 44                 1362 	jr	Z, 00126$
                                   1363 ;main.c:58: scroll_sprite(sprite_index, move_x < 0 ? -1 : 1, 0);
      00018B CB 7E                 1364 	bit	7, (hl)
      00018D 28 04                 1365 	jr	Z, 00111$
      00018F 06 FF                 1366 	ld	b, #0xff
      000191 18 02                 1367 	jr	00112$
      000193                       1368 00111$:
      000193 06 01                 1369 	ld	b, #0x01
      000195                       1370 00112$:
                                   1371 ;c:/gbdk/include/gb/gb.h:1093: OAM_item_t * itm = &shadow_OAM[nb];
      000195 11r00r00              1372 	ld	de, #_shadow_OAM+0
      000198 79                    1373 	ld	a, c
      000199 26 00                 1374 	ld	h, #0x00
      00019B 6F                    1375 	ld	l, a
      00019C 29                    1376 	add	hl, hl
      00019D 29                    1377 	add	hl, hl
      00019E 19                    1378 	add	hl, de
                                   1379 ;c:/gbdk/include/gb/gb.h:1094: itm->y+=y, itm->x+=x;
      00019F 7E                    1380 	ld	a, (hl)
      0001A0 22                    1381 	ld	(hl+), a
      0001A1 7E                    1382 	ld	a, (hl)
      0001A2 80                    1383 	add	a, b
      0001A3 77                    1384 	ld	(hl), a
                                   1385 ;main.c:59: move_x += (move_x > 0 ? -1 : 1);
      0001A4 F8 03                 1386 	ldhl	sp,	#3
      0001A6 5E                    1387 	ld	e, (hl)
      0001A7 16 00                 1388 	ld	d, #0x00
      0001A9 AF                    1389 	xor	a, a
      0001AA 96                    1390 	sub	a, (hl)
      0001AB CB 7B                 1391 	bit	7, e
      0001AD 28 07                 1392 	jr	Z, 00159$
      0001AF CB 7A                 1393 	bit	7, d
      0001B1 20 08                 1394 	jr	NZ, 00160$
      0001B3 BF                    1395 	cp	a, a
      0001B4 18 05                 1396 	jr	00160$
      0001B6                       1397 00159$:
      0001B6 CB 7A                 1398 	bit	7, d
      0001B8 28 01                 1399 	jr	Z, 00160$
      0001BA 37                    1400 	scf
      0001BB                       1401 00160$:
      0001BB 30 05                 1402 	jr	NC, 00113$
      0001BD 11 FF FF              1403 	ld	de, #0xffff
      0001C0 18 03                 1404 	jr	00114$
      0001C2                       1405 00113$:
      0001C2 11 01 00              1406 	ld	de, #0x0001
      0001C5                       1407 00114$:
      0001C5 7B                    1408 	ld	a, e
      0001C6 F8 03                 1409 	ldhl	sp,	#3
      0001C8 86                    1410 	add	a, (hl)
      0001C9 77                    1411 	ld	(hl), a
                                   1412 ;main.c:60: wait_vbl_done();
      0001CA CDr00r00              1413 	call	_wait_vbl_done
      0001CD 18 B6                 1414 	jr	00101$
                                   1415 ;main.c:62: while (move_y != 0){
      0001CF                       1416 00126$:
      0001CF                       1417 00104$:
      0001CF F8 04                 1418 	ldhl	sp,	#4
      0001D1 7E                    1419 	ld	a, (hl)
      0001D2 B7                    1420 	or	a, a
      0001D3 C8                    1421 	ret	Z
                                   1422 ;main.c:63: scroll_sprite(sprite_index, 0, move_y < 0 ? -1 : 1);
      0001D4 CB 7E                 1423 	bit	7, (hl)
      0001D6 28 04                 1424 	jr	Z, 00115$
      0001D8 06 FF                 1425 	ld	b, #0xff
      0001DA 18 02                 1426 	jr	00116$
      0001DC                       1427 00115$:
      0001DC 06 01                 1428 	ld	b, #0x01
      0001DE                       1429 00116$:
                                   1430 ;c:/gbdk/include/gb/gb.h:1093: OAM_item_t * itm = &shadow_OAM[nb];
      0001DE 11r00r00              1431 	ld	de, #_shadow_OAM+0
      0001E1 79                    1432 	ld	a, c
      0001E2 26 00                 1433 	ld	h, #0x00
      0001E4 6F                    1434 	ld	l, a
      0001E5 29                    1435 	add	hl, hl
      0001E6 29                    1436 	add	hl, hl
      0001E7 19                    1437 	add	hl, de
                                   1438 ;c:/gbdk/include/gb/gb.h:1094: itm->y+=y, itm->x+=x;
      0001E8 7E                    1439 	ld	a, (hl)
      0001E9 80                    1440 	add	a, b
      0001EA 22                    1441 	ld	(hl+), a
      0001EB 7E                    1442 	ld	a, (hl)
      0001EC 77                    1443 	ld	(hl), a
                                   1444 ;main.c:64: move_y += (move_y > 0 ? -1 : 1);
      0001ED F8 04                 1445 	ldhl	sp,	#4
      0001EF 5E                    1446 	ld	e, (hl)
      0001F0 16 00                 1447 	ld	d, #0x00
      0001F2 AF                    1448 	xor	a, a
      0001F3 96                    1449 	sub	a, (hl)
      0001F4 CB 7B                 1450 	bit	7, e
      0001F6 28 07                 1451 	jr	Z, 00161$
      0001F8 CB 7A                 1452 	bit	7, d
      0001FA 20 08                 1453 	jr	NZ, 00162$
      0001FC BF                    1454 	cp	a, a
      0001FD 18 05                 1455 	jr	00162$
      0001FF                       1456 00161$:
      0001FF CB 7A                 1457 	bit	7, d
      000201 28 01                 1458 	jr	Z, 00162$
      000203 37                    1459 	scf
      000204                       1460 00162$:
      000204 30 05                 1461 	jr	NC, 00117$
      000206 11 FF FF              1462 	ld	de, #0xffff
      000209 18 03                 1463 	jr	00118$
      00020B                       1464 00117$:
      00020B 11 01 00              1465 	ld	de, #0x0001
      00020E                       1466 00118$:
      00020E 7B                    1467 	ld	a, e
      00020F F8 04                 1468 	ldhl	sp,	#4
      000211 86                    1469 	add	a, (hl)
      000212 77                    1470 	ld	(hl), a
                                   1471 ;main.c:65: wait_vbl_done();
      000213 CDr00r00              1472 	call	_wait_vbl_done
                                   1473 ;main.c:67: }
      000216 18 B7                 1474 	jr	00104$
                                   1475 ;main.c:69: void move(UINT8 sprite_index, UINT8 *player_loc_x, UINT8 *player_loc_y){
                                   1476 ;	---------------------------------
                                   1477 ; Function move
                                   1478 ; ---------------------------------
      000218                       1479 _move::
      000218 3B                    1480 	dec	sp
                                   1481 ;main.c:71: switch (joypad())
      000219 CDr00r00              1482 	call	_joypad
      00021C E5                    1483 	push	hl
      00021D F8 02                 1484 	ldhl	sp,	#2
      00021F 73                    1485 	ld	(hl), e
      000220 E1                    1486 	pop	hl
                                   1487 ;main.c:74: if (can_player_move(*player_loc_x - tile, *player_loc_y)){
      000221 F8 06                 1488 	ldhl	sp,#6
      000223 2A                    1489 	ld	a, (hl+)
      000224 4F                    1490 	ld	c, a
      000225 3A                    1491 	ld	a, (hl-)
      000226 47                    1492 	ld	b, a
      000227 2B                    1493 	dec	hl
      000228 2B                    1494 	dec	hl
      000229 2A                    1495 	ld	a, (hl+)
      00022A 5F                    1496 	ld	e, a
      00022B 56                    1497 	ld	d, (hl)
                                   1498 ;main.c:71: switch (joypad())
      00022C F8 00                 1499 	ldhl	sp,	#0
      00022E 7E                    1500 	ld	a, (hl)
      00022F 3D                    1501 	dec	a
      000230 28 46                 1502 	jr	Z, 00104$
      000232 F8 00                 1503 	ldhl	sp,	#0
      000234 7E                    1504 	ld	a, (hl)
      000235 D6 02                 1505 	sub	a, #0x02
      000237 28 12                 1506 	jr	Z, 00101$
      000239 F8 00                 1507 	ldhl	sp,	#0
      00023B 7E                    1508 	ld	a, (hl)
      00023C D6 04                 1509 	sub	a, #0x04
      00023E 28 64                 1510 	jr	Z, 00107$
      000240 F8 00                 1511 	ldhl	sp,	#0
      000242 7E                    1512 	ld	a, (hl)
      000243 D6 08                 1513 	sub	a, #0x08
      000245 CArD1r02              1514 	jp	Z,00110$
      000248 C3rFEr02              1515 	jp	00113$
                                   1516 ;main.c:73: case J_LEFT:
      00024B                       1517 00101$:
                                   1518 ;main.c:74: if (can_player_move(*player_loc_x - tile, *player_loc_y)){
      00024B 0A                    1519 	ld	a, (bc)
      00024C 47                    1520 	ld	b, a
      00024D 1A                    1521 	ld	a, (de)
      00024E C6 F8                 1522 	add	a, #0xf8
      000250 D5                    1523 	push	de
      000251 C5                    1524 	push	bc
      000252 33                    1525 	inc	sp
      000253 F5                    1526 	push	af
      000254 33                    1527 	inc	sp
      000255 CDrC3r00              1528 	call	_can_player_move
      000258 E8 02                 1529 	add	sp, #2
      00025A 7B                    1530 	ld	a, e
      00025B D1                    1531 	pop	de
      00025C B7                    1532 	or	a, a
      00025D CAr06r03              1533 	jp	Z, 00116$
                                   1534 ;main.c:75: animate_sprite(sprite_index, -1*tile, 0);
      000260 D5                    1535 	push	de
      000261 AF                    1536 	xor	a, a
      000262 57                    1537 	ld	d,a
      000263 1E F8                 1538 	ld	e,#0xf8
      000265 D5                    1539 	push	de
      000266 F8 07                 1540 	ldhl	sp,	#7
      000268 7E                    1541 	ld	a, (hl)
      000269 F5                    1542 	push	af
      00026A 33                    1543 	inc	sp
      00026B CDr82r01              1544 	call	_animate_sprite
      00026E E8 03                 1545 	add	sp, #3
      000270 D1                    1546 	pop	de
                                   1547 ;main.c:76: *player_loc_x -= tile;
      000271 1A                    1548 	ld	a, (de)
      000272 C6 F8                 1549 	add	a, #0xf8
      000274 12                    1550 	ld	(de), a
                                   1551 ;main.c:79: break;
      000275 C3r06r03              1552 	jp	00116$
                                   1553 ;main.c:80: case J_RIGHT:
      000278                       1554 00104$:
                                   1555 ;main.c:81: if (can_player_move(*player_loc_x + tile, *player_loc_y)){
      000278 0A                    1556 	ld	a, (bc)
      000279 4F                    1557 	ld	c, a
      00027A 1A                    1558 	ld	a, (de)
      00027B C6 08                 1559 	add	a, #0x08
      00027D D5                    1560 	push	de
      00027E 61                    1561 	ld	h, c
      00027F E5                    1562 	push	hl
      000280 33                    1563 	inc	sp
      000281 F5                    1564 	push	af
      000282 33                    1565 	inc	sp
      000283 CDrC3r00              1566 	call	_can_player_move
      000286 E8 02                 1567 	add	sp, #2
      000288 7B                    1568 	ld	a, e
      000289 D1                    1569 	pop	de
      00028A B7                    1570 	or	a, a
      00028B 28 79                 1571 	jr	Z, 00116$
                                   1572 ;main.c:82: animate_sprite(sprite_index, 1*tile, 0);
      00028D D5                    1573 	push	de
      00028E AF                    1574 	xor	a, a
      00028F 57                    1575 	ld	d,a
      000290 1E 08                 1576 	ld	e,#0x08
      000292 D5                    1577 	push	de
      000293 F8 07                 1578 	ldhl	sp,	#7
      000295 7E                    1579 	ld	a, (hl)
      000296 F5                    1580 	push	af
      000297 33                    1581 	inc	sp
      000298 CDr82r01              1582 	call	_animate_sprite
      00029B E8 03                 1583 	add	sp, #3
      00029D D1                    1584 	pop	de
                                   1585 ;main.c:83: *player_loc_x += tile;
      00029E 1A                    1586 	ld	a, (de)
      00029F C6 08                 1587 	add	a, #0x08
      0002A1 12                    1588 	ld	(de), a
                                   1589 ;main.c:86: break;
      0002A2 18 62                 1590 	jr	00116$
                                   1591 ;main.c:87: case J_UP:
      0002A4                       1592 00107$:
                                   1593 ;main.c:88: if (can_player_move(*player_loc_x, *player_loc_y - tile)){
      0002A4 0A                    1594 	ld	a, (bc)
      0002A5 C6 F8                 1595 	add	a, #0xf8
      0002A7 67                    1596 	ld	h, a
      0002A8 1A                    1597 	ld	a, (de)
      0002A9 C5                    1598 	push	bc
      0002AA E5                    1599 	push	hl
      0002AB 33                    1600 	inc	sp
      0002AC F5                    1601 	push	af
      0002AD 33                    1602 	inc	sp
      0002AE CDrC3r00              1603 	call	_can_player_move
      0002B1 E8 02                 1604 	add	sp, #2
      0002B3 7B                    1605 	ld	a, e
      0002B4 C1                    1606 	pop	bc
      0002B5 B7                    1607 	or	a, a
      0002B6 28 4E                 1608 	jr	Z, 00116$
                                   1609 ;main.c:89: animate_sprite(sprite_index, 0, -1*tile);
      0002B8 C5                    1610 	push	bc
      0002B9 3E F8                 1611 	ld	a, #0xf8
      0002BB F5                    1612 	push	af
      0002BC 33                    1613 	inc	sp
      0002BD AF                    1614 	xor	a, a
      0002BE F5                    1615 	push	af
      0002BF 33                    1616 	inc	sp
      0002C0 F8 07                 1617 	ldhl	sp,	#7
      0002C2 7E                    1618 	ld	a, (hl)
      0002C3 F5                    1619 	push	af
      0002C4 33                    1620 	inc	sp
      0002C5 CDr82r01              1621 	call	_animate_sprite
      0002C8 E8 03                 1622 	add	sp, #3
      0002CA C1                    1623 	pop	bc
                                   1624 ;main.c:90: *player_loc_y -= tile;
      0002CB 0A                    1625 	ld	a, (bc)
      0002CC C6 F8                 1626 	add	a, #0xf8
      0002CE 02                    1627 	ld	(bc), a
                                   1628 ;main.c:93: break;
      0002CF 18 35                 1629 	jr	00116$
                                   1630 ;main.c:94: case J_DOWN:
      0002D1                       1631 00110$:
                                   1632 ;main.c:95: if (can_player_move(*player_loc_x, *player_loc_y + tile)){
      0002D1 0A                    1633 	ld	a, (bc)
      0002D2 C6 08                 1634 	add	a, #0x08
      0002D4 67                    1635 	ld	h, a
      0002D5 1A                    1636 	ld	a, (de)
      0002D6 C5                    1637 	push	bc
      0002D7 E5                    1638 	push	hl
      0002D8 33                    1639 	inc	sp
      0002D9 F5                    1640 	push	af
      0002DA 33                    1641 	inc	sp
      0002DB CDrC3r00              1642 	call	_can_player_move
      0002DE E8 02                 1643 	add	sp, #2
      0002E0 7B                    1644 	ld	a, e
      0002E1 C1                    1645 	pop	bc
      0002E2 B7                    1646 	or	a, a
      0002E3 28 21                 1647 	jr	Z, 00116$
                                   1648 ;main.c:96: animate_sprite(sprite_index, 0, 1*tile);
      0002E5 C5                    1649 	push	bc
      0002E6 3E 08                 1650 	ld	a, #0x08
      0002E8 F5                    1651 	push	af
      0002E9 33                    1652 	inc	sp
      0002EA AF                    1653 	xor	a, a
      0002EB F5                    1654 	push	af
      0002EC 33                    1655 	inc	sp
      0002ED F8 07                 1656 	ldhl	sp,	#7
      0002EF 7E                    1657 	ld	a, (hl)
      0002F0 F5                    1658 	push	af
      0002F1 33                    1659 	inc	sp
      0002F2 CDr82r01              1660 	call	_animate_sprite
      0002F5 E8 03                 1661 	add	sp, #3
      0002F7 C1                    1662 	pop	bc
                                   1663 ;main.c:97: *player_loc_y += tile;
      0002F8 0A                    1664 	ld	a, (bc)
      0002F9 C6 08                 1665 	add	a, #0x08
      0002FB 02                    1666 	ld	(bc), a
                                   1667 ;main.c:99: break;
      0002FC 18 08                 1668 	jr	00116$
                                   1669 ;main.c:100: default:
      0002FE                       1670 00113$:
                                   1671 ;c:/gbdk/include/gb/gb.h:1093: OAM_item_t * itm = &shadow_OAM[nb];
      0002FE 01r00r00              1672 	ld	bc, #_shadow_OAM+0
                                   1673 ;c:/gbdk/include/gb/gb.h:1094: itm->y+=y, itm->x+=x;
      000301 0A                    1674 	ld	a, (bc)
      000302 02                    1675 	ld	(bc), a
      000303 03                    1676 	inc	bc
      000304 0A                    1677 	ld	a, (bc)
      000305 02                    1678 	ld	(bc), a
                                   1679 ;main.c:104: }
      000306                       1680 00116$:
                                   1681 ;main.c:105: }
      000306 33                    1682 	inc	sp
      000307 C9                    1683 	ret
                                   1684 ;main.c:107: void animate(int sprite_location, int *csi){
                                   1685 ;	---------------------------------
                                   1686 ; Function animate
                                   1687 ; ---------------------------------
      000308                       1688 _animate::
                                   1689 ;main.c:108: if (*csi == 0){
      000308 F8 04                 1690 	ldhl	sp,#4
      00030A 2A                    1691 	ld	a, (hl+)
      00030B 4F                    1692 	ld	c, a
      00030C 46                    1693 	ld	b, (hl)
      00030D 69                    1694 	ld	l, c
      00030E 60                    1695 	ld	h, b
      00030F 2A                    1696 	ld	a, (hl+)
      000310 66                    1697 	ld	h, (hl)
      000311 6F                    1698 	ld	l,a
      000312 B4                    1699 	or	a,h
      000313 20 09                 1700 	jr	NZ, 00108$
                                   1701 ;main.c:109: *csi = 1;
      000315 69                    1702 	ld	l, c
      000316 60                    1703 	ld	h, b
      000317 3E 01                 1704 	ld	a, #0x01
      000319 22                    1705 	ld	(hl+), a
      00031A 36 00                 1706 	ld	(hl), #0x00
      00031C 18 22                 1707 	jr	00109$
      00031E                       1708 00108$:
                                   1709 ;main.c:111: else if (*csi == 1){
      00031E 7D                    1710 	ld	a, l
      00031F 3D                    1711 	dec	a
      000320 B4                    1712 	or	a, h
      000321 20 09                 1713 	jr	NZ, 00105$
                                   1714 ;main.c:112: *csi = 2;
      000323 69                    1715 	ld	l, c
      000324 60                    1716 	ld	h, b
      000325 3E 02                 1717 	ld	a, #0x02
      000327 22                    1718 	ld	(hl+), a
      000328 36 00                 1719 	ld	(hl), #0x00
      00032A 18 14                 1720 	jr	00109$
      00032C                       1721 00105$:
                                   1722 ;main.c:114: else if (*csi == 2){
      00032C 7D                    1723 	ld	a, l
      00032D D6 02                 1724 	sub	a, #0x02
      00032F B4                    1725 	or	a, h
      000330 20 09                 1726 	jr	NZ, 00102$
                                   1727 ;main.c:115: *csi = 3;
      000332 69                    1728 	ld	l, c
      000333 60                    1729 	ld	h, b
      000334 3E 03                 1730 	ld	a, #0x03
      000336 22                    1731 	ld	(hl+), a
      000337 36 00                 1732 	ld	(hl), #0x00
      000339 18 05                 1733 	jr	00109$
      00033B                       1734 00102$:
                                   1735 ;main.c:118: *csi = 0;
      00033B 69                    1736 	ld	l, c
      00033C 60                    1737 	ld	h, b
      00033D AF                    1738 	xor	a, a
      00033E 22                    1739 	ld	(hl+), a
      00033F 77                    1740 	ld	(hl), a
      000340                       1741 00109$:
                                   1742 ;main.c:120: set_sprite_tile(sprite_location, *csi);
      000340 0A                    1743 	ld	a, (bc)
      000341 4F                    1744 	ld	c, a
      000342 F8 02                 1745 	ldhl	sp,	#2
      000344 46                    1746 	ld	b, (hl)
                                   1747 ;c:/gbdk/include/gb/gb.h:1004: shadow_OAM[nb].tile=tile;
      000345 11r00r00              1748 	ld	de, #_shadow_OAM+0
      000348 26 00                 1749 	ld	h, #0x00
      00034A 68                    1750 	ld	l, b
      00034B 29                    1751 	add	hl, hl
      00034C 29                    1752 	add	hl, hl
      00034D 19                    1753 	add	hl, de
      00034E 23                    1754 	inc	hl
      00034F 23                    1755 	inc	hl
      000350 71                    1756 	ld	(hl), c
                                   1757 ;main.c:120: set_sprite_tile(sprite_location, *csi);
                                   1758 ;main.c:121: }
      000351 C9                    1759 	ret
                                   1760 ;main.c:123: void main(){
                                   1761 ;	---------------------------------
                                   1762 ; Function main
                                   1763 ; ---------------------------------
      000352                       1764 _main::
      000352 E8 FD                 1765 	add	sp, #-3
                                   1766 ;main.c:135: set_bkg_data(0, 4, maze_tiles); //start at 37 to avoid clash with font, shares same memory locations
      000354 21r40r00              1767 	ld	hl, #_maze_tiles
      000357 E5                    1768 	push	hl
      000358 3E 04                 1769 	ld	a, #0x04
      00035A F5                    1770 	push	af
      00035B 33                    1771 	inc	sp
      00035C AF                    1772 	xor	a, a
      00035D F5                    1773 	push	af
      00035E 33                    1774 	inc	sp
      00035F CDr00r00              1775 	call	_set_bkg_data
      000362 E8 04                 1776 	add	sp, #4
                                   1777 ;main.c:136: set_bkg_tiles(0, 0, 20, 19, maze);
      000364 21r80r00              1778 	ld	hl, #_maze
      000367 E5                    1779 	push	hl
      000368 11 14 13              1780 	ld	de, #0x1314
      00036B D5                    1781 	push	de
      00036C AF                    1782 	xor	a, a
      00036D F5                    1783 	push	af
      00036E 33                    1784 	inc	sp
      00036F AF                    1785 	xor	a, a
      000370 F5                    1786 	push	af
      000371 33                    1787 	inc	sp
      000372 CDr00r00              1788 	call	_set_bkg_tiles
      000375 E8 06                 1789 	add	sp, #6
                                   1790 ;main.c:139: DISPLAY_ON;
      000377 F0r00                 1791 	ldh	a, (_LCDC_REG+0)
      000379 F6 80                 1792 	or	a, #0x80
      00037B E0r00                 1793 	ldh	(_LCDC_REG+0),a
                                   1794 ;main.c:140: SHOW_BKG;
      00037D F0r00                 1795 	ldh	a, (_LCDC_REG+0)
      00037F F6 01                 1796 	or	a, #0x01
      000381 E0r00                 1797 	ldh	(_LCDC_REG+0),a
                                   1798 ;main.c:142: UINT8 current_sprite_index = 0;
      000383 AF                    1799 	xor	a, a
      000384 F8 00                 1800 	ldhl	sp,	#0
      000386 77                    1801 	ld	(hl), a
                                   1802 ;main.c:143: game_running = 1;
      000387 21rECr01              1803 	ld	hl, #_game_running
      00038A 36 01                 1804 	ld	(hl), #0x01
                                   1805 ;main.c:145: playerlocation[0] = 16;
      00038C 21rE8r01              1806 	ld	hl, #_playerlocation
      00038F 36 10                 1807 	ld	(hl), #0x10
                                   1808 ;main.c:146: playerlocation[1] = 24;
      000391 21rE9r01              1809 	ld	hl, #(_playerlocation + 0x0001)
      000394 36 18                 1810 	ld	(hl), #0x18
                                   1811 ;main.c:148: int counter = 0;
      000396 01 00 00              1812 	ld	bc, #0x0000
                                   1813 ;main.c:149: set_sprite_data(0, 4, Face2);
      000399 21r00r00              1814 	ld	hl, #_Face2
      00039C E5                    1815 	push	hl
      00039D 3E 04                 1816 	ld	a, #0x04
      00039F F5                    1817 	push	af
      0003A0 33                    1818 	inc	sp
      0003A1 AF                    1819 	xor	a, a
      0003A2 F5                    1820 	push	af
      0003A3 33                    1821 	inc	sp
      0003A4 CDr00r00              1822 	call	_set_sprite_data
      0003A7 E8 04                 1823 	add	sp, #4
                                   1824 ;c:/gbdk/include/gb/gb.h:1004: shadow_OAM[nb].tile=tile;
      0003A9 21r02r00              1825 	ld	hl, #(_shadow_OAM + 0x0002)
      0003AC 36 00                 1826 	ld	(hl), #0x00
                                   1827 ;main.c:151: move_sprite(0, playerlocation[0], playerlocation[1]); // across, down
      0003AE FArE9r01              1828 	ld	a, (#(_playerlocation + 0x0001) + 0)
      0003B1 F8 01                 1829 	ldhl	sp,	#1
      0003B3 77                    1830 	ld	(hl), a
      0003B4 FArE8r01              1831 	ld	a, (#_playerlocation + 0)
      0003B7 F8 02                 1832 	ldhl	sp,	#2
      0003B9 77                    1833 	ld	(hl), a
                                   1834 ;c:/gbdk/include/gb/gb.h:1077: OAM_item_t * itm = &shadow_OAM[nb];
      0003BA 11r00r00              1835 	ld	de, #_shadow_OAM+0
                                   1836 ;c:/gbdk/include/gb/gb.h:1078: itm->y=y, itm->x=x;
      0003BD F8 01                 1837 	ldhl	sp,	#1
      0003BF 7E                    1838 	ld	a, (hl)
      0003C0 12                    1839 	ld	(de), a
      0003C1 13                    1840 	inc	de
      0003C2 23                    1841 	inc	hl
      0003C3 7E                    1842 	ld	a, (hl)
      0003C4 12                    1843 	ld	(de), a
                                   1844 ;main.c:152: SHOW_SPRITES;
      0003C5 F0r00                 1845 	ldh	a, (_LCDC_REG+0)
      0003C7 F6 02                 1846 	or	a, #0x02
      0003C9 E0r00                 1847 	ldh	(_LCDC_REG+0),a
                                   1848 ;main.c:154: while(game_running){
      0003CB                       1849 00103$:
      0003CB FArECr01              1850 	ld	a, (#_game_running)
      0003CE B7                    1851 	or	a, a
      0003CF 28 3D                 1852 	jr	Z, 00108$
                                   1853 ;main.c:155: if (counter%10 == 0){
      0003D1 C5                    1854 	push	bc
      0003D2 21 0A 00              1855 	ld	hl, #0x000a
      0003D5 E5                    1856 	push	hl
      0003D6 C5                    1857 	push	bc
      0003D7 CDr00r00              1858 	call	__modsint
      0003DA E8 04                 1859 	add	sp, #4
      0003DC C1                    1860 	pop	bc
      0003DD 7A                    1861 	ld	a, d
      0003DE B3                    1862 	or	a, e
      0003DF 20 0F                 1863 	jr	NZ, 00102$
                                   1864 ;main.c:156: animate(0, &current_sprite_index);
      0003E1 F8 00                 1865 	ldhl	sp,	#0
      0003E3 E5                    1866 	push	hl
      0003E4 21 00 00              1867 	ld	hl, #0x0000
      0003E7 E5                    1868 	push	hl
      0003E8 CDr08r03              1869 	call	_animate
      0003EB E8 04                 1870 	add	sp, #4
                                   1871 ;main.c:157: counter = 0;
      0003ED 01 00 00              1872 	ld	bc, #0x0000
      0003F0                       1873 00102$:
                                   1874 ;main.c:159: move(0, &playerlocation[0], &playerlocation[1]);
      0003F0 C5                    1875 	push	bc
      0003F1 21rE9r01              1876 	ld	hl, #(_playerlocation + 0x0001)
      0003F4 E5                    1877 	push	hl
      0003F5 21rE8r01              1878 	ld	hl, #_playerlocation
      0003F8 E5                    1879 	push	hl
      0003F9 AF                    1880 	xor	a, a
      0003FA F5                    1881 	push	af
      0003FB 33                    1882 	inc	sp
      0003FC CDr18r02              1883 	call	_move
      0003FF E8 05                 1884 	add	sp, #5
      000401 21 64 00              1885 	ld	hl, #0x0064
      000404 E5                    1886 	push	hl
      000405 CDr00r00              1887 	call	_delay
      000408 E8 02                 1888 	add	sp, #2
      00040A C1                    1889 	pop	bc
                                   1890 ;main.c:161: counter++;
      00040B 03                    1891 	inc	bc
      00040C 18 BD                 1892 	jr	00103$
      00040E                       1893 00108$:
                                   1894 ;main.c:163: }
      00040E E8 03                 1895 	add	sp, #3
      000410 C9                    1896 	ret
                                   1897 	.area _CODE
                                   1898 	.area _CABS (ABS)
